   1              	 .syntax unified
   2              	 .cpu cortex-m4
   3              	 .eabi_attribute 27,3
   4              	 .fpu fpv4-sp-d16
   5              	 .eabi_attribute 20,1
   6              	 .eabi_attribute 21,1
   7              	 .eabi_attribute 23,3
   8              	 .eabi_attribute 24,1
   9              	 .eabi_attribute 25,1
  10              	 .eabi_attribute 26,1
  11              	 .eabi_attribute 30,6
  12              	 .eabi_attribute 34,1
  13              	 .eabi_attribute 18,4
  14              	 .thumb
  15              	 .file "analog_io.c"
  16              	 .text
  17              	.Ltext0:
  18              	 .cfi_sections .debug_frame
  19              	 .section .text.ANALOG_IO_GetAppVersion,"ax",%progbits
  20              	 .align 2
  21              	 .global ANALOG_IO_GetAppVersion
  22              	 .thumb
  23              	 .thumb_func
  25              	ANALOG_IO_GetAppVersion:
  26              	.LFB144:
  27              	 .file 1 "../Dave/Generated/ANALOG_IO/analog_io.c"
   1:../Dave/Generated/ANALOG_IO/analog_io.c **** /**
   2:../Dave/Generated/ANALOG_IO/analog_io.c ****  * @file analog_io.c
   3:../Dave/Generated/ANALOG_IO/analog_io.c ****  * @date 2016-07-08
   4:../Dave/Generated/ANALOG_IO/analog_io.c ****  *
   5:../Dave/Generated/ANALOG_IO/analog_io.c ****  * NOTE:
   6:../Dave/Generated/ANALOG_IO/analog_io.c ****  * This file is generated by DAVE. Any manual modification done to this file will be lost when the 
   7:../Dave/Generated/ANALOG_IO/analog_io.c ****  *
   8:../Dave/Generated/ANALOG_IO/analog_io.c ****  * @cond
   9:../Dave/Generated/ANALOG_IO/analog_io.c ****  **************************************************************************************************
  10:../Dave/Generated/ANALOG_IO/analog_io.c ****  * ANALOG_IO v4.0.12 - The ANALOG_IO APP is used to select port pin as a Analog input/output.
  11:../Dave/Generated/ANALOG_IO/analog_io.c ****  *
  12:../Dave/Generated/ANALOG_IO/analog_io.c ****  * Copyright (c) 2015-2020, Infineon Technologies AG
  13:../Dave/Generated/ANALOG_IO/analog_io.c ****  * All rights reserved.
  14:../Dave/Generated/ANALOG_IO/analog_io.c ****  *
  15:../Dave/Generated/ANALOG_IO/analog_io.c ****  * Redistribution and use in source and binary forms, with or without modification,are permitted pr
  16:../Dave/Generated/ANALOG_IO/analog_io.c ****  * following conditions are met:
  17:../Dave/Generated/ANALOG_IO/analog_io.c ****  *
  18:../Dave/Generated/ANALOG_IO/analog_io.c ****  *   Redistributions of source code must retain the above copyright notice, this list of conditions
  19:../Dave/Generated/ANALOG_IO/analog_io.c ****  *   disclaimer.
  20:../Dave/Generated/ANALOG_IO/analog_io.c ****  *
  21:../Dave/Generated/ANALOG_IO/analog_io.c ****  *   Redistributions in binary form must reproduce the above copyright notice, this list of conditi
  22:../Dave/Generated/ANALOG_IO/analog_io.c ****  *   following disclaimer in the documentation and/or other materials provided with the distributio
  23:../Dave/Generated/ANALOG_IO/analog_io.c ****  *
  24:../Dave/Generated/ANALOG_IO/analog_io.c ****  *   Neither the name of the copyright holders nor the names of its contributors may be used to end
  25:../Dave/Generated/ANALOG_IO/analog_io.c ****  *   products derived from this software without specific prior written permission.
  26:../Dave/Generated/ANALOG_IO/analog_io.c ****  *
  27:../Dave/Generated/ANALOG_IO/analog_io.c ****  * THIS SOFTWARE IS PROVIDED BY THE COPYRIGHT HOLDERS AND CONTRIBUTORS "AS IS" AND ANY EXPRESS OR I
  28:../Dave/Generated/ANALOG_IO/analog_io.c ****  * INCLUDING, BUT NOT LIMITED TO, THE IMPLIED WARRANTIES OF MERCHANTABILITY AND FITNESS FOR A PARTI
  29:../Dave/Generated/ANALOG_IO/analog_io.c ****  * DISCLAIMED. IN NO EVENT SHALL THE COPYRIGHT HOLDER OR CONTRIBUTORS BE LIABLE  FOR ANY DIRECT, IN
  30:../Dave/Generated/ANALOG_IO/analog_io.c ****  * SPECIAL, EXEMPLARY, OR CONSEQUENTIAL DAMAGES (INCLUDING, BUT NOT LIMITED TO, PROCUREMENT OF SUBS
  31:../Dave/Generated/ANALOG_IO/analog_io.c ****  * SERVICES; LOSS OF USE, DATA, OR PROFITS; OR BUSINESS INTERRUPTION) HOWEVER CAUSED AND ON ANY THE
  32:../Dave/Generated/ANALOG_IO/analog_io.c ****  * WHETHER IN CONTRACT, STRICT LIABILITY,OR TORT (INCLUDING NEGLIGENCE OR OTHERWISE) ARISING IN ANY
  33:../Dave/Generated/ANALOG_IO/analog_io.c ****  * USE OF THIS SOFTWARE, EVEN IF ADVISED OF THE POSSIBILITY OF SUCH DAMAGE.
  34:../Dave/Generated/ANALOG_IO/analog_io.c ****  *
  35:../Dave/Generated/ANALOG_IO/analog_io.c ****  * To improve the quality of the software, users are encouraged to share modifications, enhancement
  36:../Dave/Generated/ANALOG_IO/analog_io.c ****  * with Infineon Technologies AG (dave@infineon.com).
  37:../Dave/Generated/ANALOG_IO/analog_io.c ****  **************************************************************************************************
  38:../Dave/Generated/ANALOG_IO/analog_io.c ****  *
  39:../Dave/Generated/ANALOG_IO/analog_io.c ****  * Change History
  40:../Dave/Generated/ANALOG_IO/analog_io.c ****  * --------------
  41:../Dave/Generated/ANALOG_IO/analog_io.c ****  *
  42:../Dave/Generated/ANALOG_IO/analog_io.c ****  * 2015-02-16
  43:../Dave/Generated/ANALOG_IO/analog_io.c ****  *     - Initial version
  44:../Dave/Generated/ANALOG_IO/analog_io.c ****  *
  45:../Dave/Generated/ANALOG_IO/analog_io.c ****  * 2015-09-30:
  46:../Dave/Generated/ANALOG_IO/analog_io.c ****  *     - Added Digital input support for analog port pin<br>
  47:../Dave/Generated/ANALOG_IO/analog_io.c ****  *     - Added Hardware pull control support for analog port pin<br>
  48:../Dave/Generated/ANALOG_IO/analog_io.c ****  *
  49:../Dave/Generated/ANALOG_IO/analog_io.c ****  * 2016-07-08:
  50:../Dave/Generated/ANALOG_IO/analog_io.c ****  *     - Fixed incorrect case for an included header.<br>
  51:../Dave/Generated/ANALOG_IO/analog_io.c ****  *
  52:../Dave/Generated/ANALOG_IO/analog_io.c ****  * @endcond
  53:../Dave/Generated/ANALOG_IO/analog_io.c ****  *
  54:../Dave/Generated/ANALOG_IO/analog_io.c ****  */
  55:../Dave/Generated/ANALOG_IO/analog_io.c **** /**************************************************************************************************
  56:../Dave/Generated/ANALOG_IO/analog_io.c ****  * HEADER FILES
  57:../Dave/Generated/ANALOG_IO/analog_io.c ****  **************************************************************************************************
  58:../Dave/Generated/ANALOG_IO/analog_io.c **** 
  59:../Dave/Generated/ANALOG_IO/analog_io.c **** #include "analog_io.h"
  60:../Dave/Generated/ANALOG_IO/analog_io.c **** 
  61:../Dave/Generated/ANALOG_IO/analog_io.c **** /**************************************************************************************************
  62:../Dave/Generated/ANALOG_IO/analog_io.c ****  * MACROS
  63:../Dave/Generated/ANALOG_IO/analog_io.c ****  **************************************************************************************************
  64:../Dave/Generated/ANALOG_IO/analog_io.c **** 
  65:../Dave/Generated/ANALOG_IO/analog_io.c **** /**************************************************************************************************
  66:../Dave/Generated/ANALOG_IO/analog_io.c ****  * LOCAL DATA
  67:../Dave/Generated/ANALOG_IO/analog_io.c ****  **************************************************************************************************
  68:../Dave/Generated/ANALOG_IO/analog_io.c **** 
  69:../Dave/Generated/ANALOG_IO/analog_io.c **** /**************************************************************************************************
  70:../Dave/Generated/ANALOG_IO/analog_io.c ****  * LOCAL ROUTINES
  71:../Dave/Generated/ANALOG_IO/analog_io.c ****  **************************************************************************************************
  72:../Dave/Generated/ANALOG_IO/analog_io.c **** 
  73:../Dave/Generated/ANALOG_IO/analog_io.c **** /**************************************************************************************************
  74:../Dave/Generated/ANALOG_IO/analog_io.c ****  * API IMPLEMENTATION
  75:../Dave/Generated/ANALOG_IO/analog_io.c ****  **************************************************************************************************
  76:../Dave/Generated/ANALOG_IO/analog_io.c **** 
  77:../Dave/Generated/ANALOG_IO/analog_io.c **** /*Get driver version*/
  78:../Dave/Generated/ANALOG_IO/analog_io.c **** DAVE_APP_VERSION_t ANALOG_IO_GetAppVersion(void)
  79:../Dave/Generated/ANALOG_IO/analog_io.c **** {
  28              	 .loc 1 79 0
  29              	 .cfi_startproc
  30              	 
  31              	 
  32              	 
  33 0000 80B4     	 push {r7}
  34              	.LCFI0:
  35              	 .cfi_def_cfa_offset 4
  36              	 .cfi_offset 7,-4
  37 0002 83B0     	 sub sp,sp,#12
  38              	.LCFI1:
  39              	 .cfi_def_cfa_offset 16
  40 0004 00AF     	 add r7,sp,#0
  41              	.LCFI2:
  42              	 .cfi_def_cfa_register 7
  80:../Dave/Generated/ANALOG_IO/analog_io.c ****    DAVE_APP_VERSION_t version;
  81:../Dave/Generated/ANALOG_IO/analog_io.c **** 
  82:../Dave/Generated/ANALOG_IO/analog_io.c ****     version.major = (uint8_t)ANALOG_IO_MAJOR_VERSION;
  43              	 .loc 1 82 0
  44 0006 0423     	 movs r3,#4
  45 0008 3B70     	 strb r3,[r7]
  83:../Dave/Generated/ANALOG_IO/analog_io.c ****     version.minor = (uint8_t)ANALOG_IO_MINOR_VERSION;
  46              	 .loc 1 83 0
  47 000a 0023     	 movs r3,#0
  48 000c 7B70     	 strb r3,[r7,#1]
  84:../Dave/Generated/ANALOG_IO/analog_io.c ****     version.patch = (uint8_t)ANALOG_IO_PATCH_VERSION;
  49              	 .loc 1 84 0
  50 000e 0C23     	 movs r3,#12
  51 0010 BB70     	 strb r3,[r7,#2]
  85:../Dave/Generated/ANALOG_IO/analog_io.c **** 
  86:../Dave/Generated/ANALOG_IO/analog_io.c ****     return (version);
  52              	 .loc 1 86 0
  53 0012 3B1D     	 adds r3,r7,#4
  54 0014 3A46     	 mov r2,r7
  55 0016 1268     	 ldr r2,[r2]
  56 0018 1146     	 mov r1,r2
  57 001a 1980     	 strh r1,[r3]
  58 001c 0233     	 adds r3,r3,#2
  59 001e 120C     	 lsrs r2,r2,#16
  60 0020 1A70     	 strb r2,[r3]
  61 0022 0023     	 movs r3,#0
  62 0024 3A79     	 ldrb r2,[r7,#4]
  63 0026 62F30703 	 bfi r3,r2,#0,#8
  64 002a 7A79     	 ldrb r2,[r7,#5]
  65 002c 62F30F23 	 bfi r3,r2,#8,#8
  66 0030 BA79     	 ldrb r2,[r7,#6]
  67 0032 62F31743 	 bfi r3,r2,#16,#8
  87:../Dave/Generated/ANALOG_IO/analog_io.c **** }
  68              	 .loc 1 87 0
  69 0036 1846     	 mov r0,r3
  70 0038 0C37     	 adds r7,r7,#12
  71              	.LCFI3:
  72              	 .cfi_def_cfa_offset 4
  73 003a BD46     	 mov sp,r7
  74              	.LCFI4:
  75              	 .cfi_def_cfa_register 13
  76              	 
  77 003c 5DF8047B 	 ldr r7,[sp],#4
  78              	.LCFI5:
  79              	 .cfi_restore 7
  80              	 .cfi_def_cfa_offset 0
  81 0040 7047     	 bx lr
  82              	 .cfi_endproc
  83              	.LFE144:
  85 0042 00BF     	 .section .text.ANALOG_IO_Init,"ax",%progbits
  86              	 .align 2
  87              	 .global ANALOG_IO_Init
  88              	 .thumb
  89              	 .thumb_func
  91              	ANALOG_IO_Init:
  92              	.LFB145:
  88:../Dave/Generated/ANALOG_IO/analog_io.c **** 
  89:../Dave/Generated/ANALOG_IO/analog_io.c **** /**
  90:../Dave/Generated/ANALOG_IO/analog_io.c ****  * Description      : Function to initialize the analog port pin properties.
  91:../Dave/Generated/ANALOG_IO/analog_io.c ****  *
  92:../Dave/Generated/ANALOG_IO/analog_io.c ****  * Input Parameter  : Handler Pointer pointing to APP data structure.
  93:../Dave/Generated/ANALOG_IO/analog_io.c ****  * Output Parameter : ANALOG_IO_STATUS_t (ANALOG_IO APP initialization status).
  94:../Dave/Generated/ANALOG_IO/analog_io.c ****  */
  95:../Dave/Generated/ANALOG_IO/analog_io.c **** 
  96:../Dave/Generated/ANALOG_IO/analog_io.c **** ANALOG_IO_STATUS_t ANALOG_IO_Init(const ANALOG_IO_t *const handle)
  97:../Dave/Generated/ANALOG_IO/analog_io.c **** {
  93              	 .loc 1 97 0
  94              	 .cfi_startproc
  95              	 
  96              	 
  97 0000 80B5     	 push {r7,lr}
  98              	.LCFI6:
  99              	 .cfi_def_cfa_offset 8
 100              	 .cfi_offset 7,-8
 101              	 .cfi_offset 14,-4
 102 0002 82B0     	 sub sp,sp,#8
 103              	.LCFI7:
 104              	 .cfi_def_cfa_offset 16
 105 0004 00AF     	 add r7,sp,#0
 106              	.LCFI8:
 107              	 .cfi_def_cfa_register 7
 108 0006 7860     	 str r0,[r7,#4]
  98:../Dave/Generated/ANALOG_IO/analog_io.c ****   XMC_ASSERT("ANALOG_IO_Init: Passed handler is a null pointer", handler != NULL);
  99:../Dave/Generated/ANALOG_IO/analog_io.c ****   if (*(handle->state) == ANALOG_IO_STATE_NOT_INITIALIZED)
 109              	 .loc 1 99 0
 110 0008 7B68     	 ldr r3,[r7,#4]
 111 000a 5B68     	 ldr r3,[r3,#4]
 112 000c 1B78     	 ldrb r3,[r3]
 113 000e 002B     	 cmp r3,#0
 114 0010 0AD1     	 bne .L4
 100:../Dave/Generated/ANALOG_IO/analog_io.c ****   {
 101:../Dave/Generated/ANALOG_IO/analog_io.c ****     if (handle->config_ptr != NULL)
 115              	 .loc 1 101 0
 116 0012 7B68     	 ldr r3,[r7,#4]
 117 0014 1B68     	 ldr r3,[r3]
 118 0016 002B     	 cmp r3,#0
 119 0018 02D0     	 beq .L5
 102:../Dave/Generated/ANALOG_IO/analog_io.c ****     {
 103:../Dave/Generated/ANALOG_IO/analog_io.c ****       /* Instance specific initialization function call*/
 104:../Dave/Generated/ANALOG_IO/analog_io.c ****       handle->config_ptr();
 120              	 .loc 1 104 0
 121 001a 7B68     	 ldr r3,[r7,#4]
 122 001c 1B68     	 ldr r3,[r3]
 123 001e 9847     	 blx r3
 124              	.L5:
 105:../Dave/Generated/ANALOG_IO/analog_io.c ****     }
 106:../Dave/Generated/ANALOG_IO/analog_io.c ****     /* Set the state variable to initialized state*/
 107:../Dave/Generated/ANALOG_IO/analog_io.c ****     *(handle->state) = ANALOG_IO_STATE_INITIALIZED;
 125              	 .loc 1 107 0
 126 0020 7B68     	 ldr r3,[r7,#4]
 127 0022 5B68     	 ldr r3,[r3,#4]
 128 0024 0122     	 movs r2,#1
 129 0026 1A70     	 strb r2,[r3]
 130              	.L4:
 108:../Dave/Generated/ANALOG_IO/analog_io.c ****   }
 109:../Dave/Generated/ANALOG_IO/analog_io.c ****   return (ANALOG_IO_STATUS_OK);
 131              	 .loc 1 109 0
 132 0028 0023     	 movs r3,#0
 110:../Dave/Generated/ANALOG_IO/analog_io.c **** }
 133              	 .loc 1 110 0
 134 002a 1846     	 mov r0,r3
 135 002c 0837     	 adds r7,r7,#8
 136              	.LCFI9:
 137              	 .cfi_def_cfa_offset 8
 138 002e BD46     	 mov sp,r7
 139              	.LCFI10:
 140              	 .cfi_def_cfa_register 13
 141              	 
 142 0030 80BD     	 pop {r7,pc}
 143              	 .cfi_endproc
 144              	.LFE145:
 146 0032 00BF     	 .text
 147              	.Letext0:
 148              	 .file 2 "c:\\infineon\\tools\\dave ide\\4.5.0.202105191637\\eclipse\\arm-gcc-49\\arm-none-eabi\\include\\machine\\_default_types.h"
 149              	 .file 3 "c:\\infineon\\tools\\dave ide\\4.5.0.202105191637\\eclipse\\arm-gcc-49\\arm-none-eabi\\include\\stdint.h"
 150              	 .file 4 "C:/work_mari/XMC4800/DAC_ADC/Libraries/XMCLib/inc/xmc4_gpio.h"
 151              	 .file 5 "C:/work_mari/XMC4800/DAC_ADC/Dave/Generated/DAVE_Common.h"
 152              	 .file 6 "../Dave/Generated/ANALOG_IO/analog_io.h"
 153              	 .file 7 "C:/work_mari/XMC4800/DAC_ADC/Libraries/CMSIS/Include/cmsis_gcc.h"
 154              	 .file 8 "C:/work_mari/XMC4800/DAC_ADC/Libraries/CMSIS/Include/core_cm4.h"