   1              	 .syntax unified
   2              	 .cpu cortex-m4
   3              	 .eabi_attribute 27,3
   4              	 .fpu fpv4-sp-d16
   5              	 .eabi_attribute 20,1
   6              	 .eabi_attribute 21,1
   7              	 .eabi_attribute 23,3
   8              	 .eabi_attribute 24,1
   9              	 .eabi_attribute 25,1
  10              	 .eabi_attribute 26,1
  11              	 .eabi_attribute 30,6
  12              	 .eabi_attribute 34,1
  13              	 .eabi_attribute 18,4
  14              	 .thumb
  15              	 .file "uart_conf.c"
  16              	 .text
  17              	.Ltext0:
  18              	 .cfi_sections .debug_frame
  19              	 .section .text.XMC_USIC_CH_SetInputSource,"ax",%progbits
  20              	 .align 2
  21              	 .thumb
  22              	 .thumb_func
  24              	XMC_USIC_CH_SetInputSource:
  25              	.LFB186:
  26              	 .file 1 "C:/work_mari/XMC4800/UART/Libraries/XMCLib/inc/xmc_usic.h"
   1:C:/work_mari/XMC4800/UART/Libraries/XMCLib/inc\xmc_usic.h **** /**
   2:C:/work_mari/XMC4800/UART/Libraries/XMCLib/inc\xmc_usic.h ****  * @file xmc_usic.h
   3:C:/work_mari/XMC4800/UART/Libraries/XMCLib/inc\xmc_usic.h ****  * @date 2020-12-05
   4:C:/work_mari/XMC4800/UART/Libraries/XMCLib/inc\xmc_usic.h ****  *
   5:C:/work_mari/XMC4800/UART/Libraries/XMCLib/inc\xmc_usic.h ****  * @cond
   6:C:/work_mari/XMC4800/UART/Libraries/XMCLib/inc\xmc_usic.h ****  *****************************************************************************
   7:C:/work_mari/XMC4800/UART/Libraries/XMCLib/inc\xmc_usic.h ****  * XMClib v2.2.0 - XMC Peripheral Driver Library
   8:C:/work_mari/XMC4800/UART/Libraries/XMCLib/inc\xmc_usic.h ****  *
   9:C:/work_mari/XMC4800/UART/Libraries/XMCLib/inc\xmc_usic.h ****  * Copyright (c) 2015-2020, Infineon Technologies AG
  10:C:/work_mari/XMC4800/UART/Libraries/XMCLib/inc\xmc_usic.h ****  * All rights reserved.
  11:C:/work_mari/XMC4800/UART/Libraries/XMCLib/inc\xmc_usic.h ****  *
  12:C:/work_mari/XMC4800/UART/Libraries/XMCLib/inc\xmc_usic.h ****  * Boost Software License - Version 1.0 - August 17th, 2003
  13:C:/work_mari/XMC4800/UART/Libraries/XMCLib/inc\xmc_usic.h ****  *
  14:C:/work_mari/XMC4800/UART/Libraries/XMCLib/inc\xmc_usic.h ****  * Permission is hereby granted, free of charge, to any person or organization
  15:C:/work_mari/XMC4800/UART/Libraries/XMCLib/inc\xmc_usic.h ****  * obtaining a copy of the software and accompanying documentation covered by
  16:C:/work_mari/XMC4800/UART/Libraries/XMCLib/inc\xmc_usic.h ****  * this license (the "Software") to use, reproduce, display, distribute,
  17:C:/work_mari/XMC4800/UART/Libraries/XMCLib/inc\xmc_usic.h ****  * execute, and transmit the Software, and to prepare derivative works of the
  18:C:/work_mari/XMC4800/UART/Libraries/XMCLib/inc\xmc_usic.h ****  * Software, and to permit third-parties to whom the Software is furnished to
  19:C:/work_mari/XMC4800/UART/Libraries/XMCLib/inc\xmc_usic.h ****  * do so, all subject to the following:
  20:C:/work_mari/XMC4800/UART/Libraries/XMCLib/inc\xmc_usic.h ****  *
  21:C:/work_mari/XMC4800/UART/Libraries/XMCLib/inc\xmc_usic.h ****  * The copyright notices in the Software and this entire statement, including
  22:C:/work_mari/XMC4800/UART/Libraries/XMCLib/inc\xmc_usic.h ****  * the above license grant, this restriction and the following disclaimer,
  23:C:/work_mari/XMC4800/UART/Libraries/XMCLib/inc\xmc_usic.h ****  * must be included in all copies of the Software, in whole or in part, and
  24:C:/work_mari/XMC4800/UART/Libraries/XMCLib/inc\xmc_usic.h ****  * all derivative works of the Software, unless such copies or derivative
  25:C:/work_mari/XMC4800/UART/Libraries/XMCLib/inc\xmc_usic.h ****  * works are solely in the form of machine-executable object code generated by
  26:C:/work_mari/XMC4800/UART/Libraries/XMCLib/inc\xmc_usic.h ****  * a source language processor.
  27:C:/work_mari/XMC4800/UART/Libraries/XMCLib/inc\xmc_usic.h ****  *
  28:C:/work_mari/XMC4800/UART/Libraries/XMCLib/inc\xmc_usic.h ****  * THE SOFTWARE IS PROVIDED "AS IS", WITHOUT WARRANTY OF ANY KIND, EXPRESS OR
  29:C:/work_mari/XMC4800/UART/Libraries/XMCLib/inc\xmc_usic.h ****  * IMPLIED, INCLUDING BUT NOT LIMITED TO THE WARRANTIES OF MERCHANTABILITY,
  30:C:/work_mari/XMC4800/UART/Libraries/XMCLib/inc\xmc_usic.h ****  * FITNESS FOR A PARTICULAR PURPOSE, TITLE AND NON-INFRINGEMENT. IN NO EVENT
  31:C:/work_mari/XMC4800/UART/Libraries/XMCLib/inc\xmc_usic.h ****  * SHALL THE COPYRIGHT HOLDERS OR ANYONE DISTRIBUTING THE SOFTWARE BE LIABLE
  32:C:/work_mari/XMC4800/UART/Libraries/XMCLib/inc\xmc_usic.h ****  * FOR ANY DAMAGES OR OTHER LIABILITY, WHETHER IN CONTRACT, TORT OR OTHERWISE,
  33:C:/work_mari/XMC4800/UART/Libraries/XMCLib/inc\xmc_usic.h ****  * ARISING FROM, OUT OF OR IN CONNECTION WITH THE SOFTWARE OR THE USE OR OTHER
  34:C:/work_mari/XMC4800/UART/Libraries/XMCLib/inc\xmc_usic.h ****  * DEALINGS IN THE SOFTWARE.
  35:C:/work_mari/XMC4800/UART/Libraries/XMCLib/inc\xmc_usic.h ****  *
  36:C:/work_mari/XMC4800/UART/Libraries/XMCLib/inc\xmc_usic.h ****  * To improve the quality of the software, users are encouraged to share
  37:C:/work_mari/XMC4800/UART/Libraries/XMCLib/inc\xmc_usic.h ****  * modifications, enhancements or bug fixes with Infineon Technologies AG
  38:C:/work_mari/XMC4800/UART/Libraries/XMCLib/inc\xmc_usic.h ****  * at XMCSupport@infineon.com.
  39:C:/work_mari/XMC4800/UART/Libraries/XMCLib/inc\xmc_usic.h ****  *****************************************************************************
  40:C:/work_mari/XMC4800/UART/Libraries/XMCLib/inc\xmc_usic.h ****  *
  41:C:/work_mari/XMC4800/UART/Libraries/XMCLib/inc\xmc_usic.h ****  * Change History
  42:C:/work_mari/XMC4800/UART/Libraries/XMCLib/inc\xmc_usic.h ****  * --------------
  43:C:/work_mari/XMC4800/UART/Libraries/XMCLib/inc\xmc_usic.h ****  *
  44:C:/work_mari/XMC4800/UART/Libraries/XMCLib/inc\xmc_usic.h ****  * 2015-02-20:
  45:C:/work_mari/XMC4800/UART/Libraries/XMCLib/inc\xmc_usic.h ****  *     - Initial draft<br>
  46:C:/work_mari/XMC4800/UART/Libraries/XMCLib/inc\xmc_usic.h ****  *     - Documentation improved <br>
  47:C:/work_mari/XMC4800/UART/Libraries/XMCLib/inc\xmc_usic.h ****  *
  48:C:/work_mari/XMC4800/UART/Libraries/XMCLib/inc\xmc_usic.h ****  * 2015-05-08:
  49:C:/work_mari/XMC4800/UART/Libraries/XMCLib/inc\xmc_usic.h ****  *     - Added XMC_USIC_CH_SetInputTriggerCombinationMode() and XMC_USIC_CH_SetTransmitBufferStatus
  50:C:/work_mari/XMC4800/UART/Libraries/XMCLib/inc\xmc_usic.h ****  *
  51:C:/work_mari/XMC4800/UART/Libraries/XMCLib/inc\xmc_usic.h ****  * 2015-06-20:
  52:C:/work_mari/XMC4800/UART/Libraries/XMCLib/inc\xmc_usic.h ****  *     - Removed version macros and declaration of GetDriverVersion API
  53:C:/work_mari/XMC4800/UART/Libraries/XMCLib/inc\xmc_usic.h ****  *
  54:C:/work_mari/XMC4800/UART/Libraries/XMCLib/inc\xmc_usic.h ****  * 2015-08-17:
  55:C:/work_mari/XMC4800/UART/Libraries/XMCLib/inc\xmc_usic.h ****  *     - Bug fixed in XMC_USIC_CH_SetTransmitBufferStatus API. OR operator removed.
  56:C:/work_mari/XMC4800/UART/Libraries/XMCLib/inc\xmc_usic.h ****  *
  57:C:/work_mari/XMC4800/UART/Libraries/XMCLib/inc\xmc_usic.h ****  * 2015-08-24:
  58:C:/work_mari/XMC4800/UART/Libraries/XMCLib/inc\xmc_usic.h ****  *     - Added APIs for enabling/disabling delay compensation XMC_USIC_CH_DisableDelayCompensation(
  59:C:/work_mari/XMC4800/UART/Libraries/XMCLib/inc\xmc_usic.h ****  *       XMC_USIC_CH_DisableDelayCompensation()
  60:C:/work_mari/XMC4800/UART/Libraries/XMCLib/inc\xmc_usic.h ****  *
  61:C:/work_mari/XMC4800/UART/Libraries/XMCLib/inc\xmc_usic.h ****  * 2015-08-25:
  62:C:/work_mari/XMC4800/UART/Libraries/XMCLib/inc\xmc_usic.h ****  *     - Added APIs for defining if the data shift unit input is derived
  63:C:/work_mari/XMC4800/UART/Libraries/XMCLib/inc\xmc_usic.h ****  *       from the input data path DXn or from the selected protocol pre-processors: XMC_USIC_CH_Con
  64:C:/work_mari/XMC4800/UART/Libraries/XMCLib/inc\xmc_usic.h ****  *       and XMC_USIC_CH_ConnectInputDataShiftToDataInput()
  65:C:/work_mari/XMC4800/UART/Libraries/XMCLib/inc\xmc_usic.h ****  *
  66:C:/work_mari/XMC4800/UART/Libraries/XMCLib/inc\xmc_usic.h ****  * 2015-08-27:
  67:C:/work_mari/XMC4800/UART/Libraries/XMCLib/inc\xmc_usic.h ****  *     - Fixed bug in XMC_USIC_CH_BRG_CLOCK_SOURCE_DX1T value.
  68:C:/work_mari/XMC4800/UART/Libraries/XMCLib/inc\xmc_usic.h ****  *     - Added APIs for direct TBUF access: XMC_USIC_CH_WriteToTBUF() and XMC_USIC_CH_WriteToTBUFTC
  69:C:/work_mari/XMC4800/UART/Libraries/XMCLib/inc\xmc_usic.h ****  *     - Added APIs for external input for BRG configuration:XMC_USIC_CH_ConfigExternalInputSignalT
  70:C:/work_mari/XMC4800/UART/Libraries/XMCLib/inc\xmc_usic.h ****  *
  71:C:/work_mari/XMC4800/UART/Libraries/XMCLib/inc\xmc_usic.h ****  * 2015-08-28:
  72:C:/work_mari/XMC4800/UART/Libraries/XMCLib/inc\xmc_usic.h ****  *     - Added API for enabling the transfer trigger unit to set bit TCSR.TE if the trigger signal 
  73:C:/work_mari/XMC4800/UART/Libraries/XMCLib/inc\xmc_usic.h ****  *       Clear to Send (CTS) signal: XMC_USIC_CH_EnableTBUFDataValidTrigger() and XMC_USIC_CH_Disab
  74:C:/work_mari/XMC4800/UART/Libraries/XMCLib/inc\xmc_usic.h ****  *
  75:C:/work_mari/XMC4800/UART/Libraries/XMCLib/inc\xmc_usic.h ****  * 2016-03-09:
  76:C:/work_mari/XMC4800/UART/Libraries/XMCLib/inc\xmc_usic.h ****  *     - Optimization of write only registers
  77:C:/work_mari/XMC4800/UART/Libraries/XMCLib/inc\xmc_usic.h ****  *
  78:C:/work_mari/XMC4800/UART/Libraries/XMCLib/inc\xmc_usic.h ****  * 2016-04-10:
  79:C:/work_mari/XMC4800/UART/Libraries/XMCLib/inc\xmc_usic.h ****  *     - Added an API to put the data into FIFO when hardware port control is enabled: XMC_USIC_CH_
  80:C:/work_mari/XMC4800/UART/Libraries/XMCLib/inc\xmc_usic.h ****  *
  81:C:/work_mari/XMC4800/UART/Libraries/XMCLib/inc\xmc_usic.h ****  * 2017-02-10:
  82:C:/work_mari/XMC4800/UART/Libraries/XMCLib/inc\xmc_usic.h ****  *     - Added XMC_USIC_CH_SetShiftDirection() to allow selection of shift direction of the data wo
  83:C:/work_mari/XMC4800/UART/Libraries/XMCLib/inc\xmc_usic.h ****  *     - Added XMC_USIC_CH_GetCaptureTimerValue() and XMC_USIC_CH_SetFractionalDivider()
  84:C:/work_mari/XMC4800/UART/Libraries/XMCLib/inc\xmc_usic.h ****  *
  85:C:/work_mari/XMC4800/UART/Libraries/XMCLib/inc\xmc_usic.h ****  * 2017-09-08:
  86:C:/work_mari/XMC4800/UART/Libraries/XMCLib/inc\xmc_usic.h ****  *     - Fixed value of macro XMC_USIC_CH_SHIFT_DIRECTION_MSB_FIRST used in XMC_USIC_CH_SetShiftDir
  87:C:/work_mari/XMC4800/UART/Libraries/XMCLib/inc\xmc_usic.h ****  *
  88:C:/work_mari/XMC4800/UART/Libraries/XMCLib/inc\xmc_usic.h ****  * 2018-09-29:
  89:C:/work_mari/XMC4800/UART/Libraries/XMCLib/inc\xmc_usic.h ****  *     - Added XMC_USIC_CH_SetBaudrateEx which uses the integer divider instead of the fractional d
  90:C:/work_mari/XMC4800/UART/Libraries/XMCLib/inc\xmc_usic.h ****  *
  91:C:/work_mari/XMC4800/UART/Libraries/XMCLib/inc\xmc_usic.h ****  * 2019-05-07:
  92:C:/work_mari/XMC4800/UART/Libraries/XMCLib/inc\xmc_usic.h ****  *     - Added XMC_USIC_CH_GetBaudrate(), XMC_USIC_CH_GetSCLKFrequency() and XMC_USIC_CH_GetMCLKFre
  93:C:/work_mari/XMC4800/UART/Libraries/XMCLib/inc\xmc_usic.h ****  *
  94:C:/work_mari/XMC4800/UART/Libraries/XMCLib/inc\xmc_usic.h ****  * 2019-07-01:
  95:C:/work_mari/XMC4800/UART/Libraries/XMCLib/inc\xmc_usic.h ****  *     - Changed XMC_USIC_CH_SetBaudrateEx() input parameter types
  96:C:/work_mari/XMC4800/UART/Libraries/XMCLib/inc\xmc_usic.h ****  *
  97:C:/work_mari/XMC4800/UART/Libraries/XMCLib/inc\xmc_usic.h ****  * 2019-09-30:
  98:C:/work_mari/XMC4800/UART/Libraries/XMCLib/inc\xmc_usic.h ****  *     - Added XMC_USIC_CH_InvalidateReadData(), XMC_USIC_CH_EnableWordLengthControl() and XMC_USIC
  99:C:/work_mari/XMC4800/UART/Libraries/XMCLib/inc\xmc_usic.h ****  *
 100:C:/work_mari/XMC4800/UART/Libraries/XMCLib/inc\xmc_usic.h ****  * 2019-12-05:
 101:C:/work_mari/XMC4800/UART/Libraries/XMCLib/inc\xmc_usic.h ****  *     - Added XMC_USIC_CH_TXFIFO_PutDataEx()
 102:C:/work_mari/XMC4800/UART/Libraries/XMCLib/inc\xmc_usic.h ****  *
 103:C:/work_mari/XMC4800/UART/Libraries/XMCLib/inc\xmc_usic.h ****  * 2020-04-30:
 104:C:/work_mari/XMC4800/UART/Libraries/XMCLib/inc\xmc_usic.h ****  *     - Added XMC_USIC_CH_TXFIFO_SetTriggerLimit() and XMC_USIC_CH_RXFIFO_SetTriggerLimit()
 105:C:/work_mari/XMC4800/UART/Libraries/XMCLib/inc\xmc_usic.h ****  *
 106:C:/work_mari/XMC4800/UART/Libraries/XMCLib/inc\xmc_usic.h ****  * 2020-12-05:
 107:C:/work_mari/XMC4800/UART/Libraries/XMCLib/inc\xmc_usic.h ****  *     - Added XMC_USIC_CH_BRG_CLOCK_SOURCE_DX1S to XMC_USIC_CH_BRG_CLOCK_SOURCE_t
 108:C:/work_mari/XMC4800/UART/Libraries/XMCLib/inc\xmc_usic.h ****  *     - Added XMC_USIC_CH_BRG_CTQSEL_t
 109:C:/work_mari/XMC4800/UART/Libraries/XMCLib/inc\xmc_usic.h ****  *     - Added XMC_USIC_CH_SetBaudrateDivider()
 110:C:/work_mari/XMC4800/UART/Libraries/XMCLib/inc\xmc_usic.h ****  * 
 111:C:/work_mari/XMC4800/UART/Libraries/XMCLib/inc\xmc_usic.h ****  * @endcond
 112:C:/work_mari/XMC4800/UART/Libraries/XMCLib/inc\xmc_usic.h ****  *
 113:C:/work_mari/XMC4800/UART/Libraries/XMCLib/inc\xmc_usic.h ****  */
 114:C:/work_mari/XMC4800/UART/Libraries/XMCLib/inc\xmc_usic.h **** 
 115:C:/work_mari/XMC4800/UART/Libraries/XMCLib/inc\xmc_usic.h **** #ifndef XMC_USIC_H
 116:C:/work_mari/XMC4800/UART/Libraries/XMCLib/inc\xmc_usic.h **** #define XMC_USIC_H
 117:C:/work_mari/XMC4800/UART/Libraries/XMCLib/inc\xmc_usic.h **** /*******************************************************************************
 118:C:/work_mari/XMC4800/UART/Libraries/XMCLib/inc\xmc_usic.h ****  * HEADER FILES
 119:C:/work_mari/XMC4800/UART/Libraries/XMCLib/inc\xmc_usic.h ****  *******************************************************************************/
 120:C:/work_mari/XMC4800/UART/Libraries/XMCLib/inc\xmc_usic.h **** 
 121:C:/work_mari/XMC4800/UART/Libraries/XMCLib/inc\xmc_usic.h **** #include "xmc_common.h"
 122:C:/work_mari/XMC4800/UART/Libraries/XMCLib/inc\xmc_usic.h **** 
 123:C:/work_mari/XMC4800/UART/Libraries/XMCLib/inc\xmc_usic.h **** /**
 124:C:/work_mari/XMC4800/UART/Libraries/XMCLib/inc\xmc_usic.h ****  * @addtogroup XMClib XMC Peripheral Library
 125:C:/work_mari/XMC4800/UART/Libraries/XMCLib/inc\xmc_usic.h ****  * @{
 126:C:/work_mari/XMC4800/UART/Libraries/XMCLib/inc\xmc_usic.h ****  */
 127:C:/work_mari/XMC4800/UART/Libraries/XMCLib/inc\xmc_usic.h **** 
 128:C:/work_mari/XMC4800/UART/Libraries/XMCLib/inc\xmc_usic.h **** /**
 129:C:/work_mari/XMC4800/UART/Libraries/XMCLib/inc\xmc_usic.h ****  * @addtogroup USIC
 130:C:/work_mari/XMC4800/UART/Libraries/XMCLib/inc\xmc_usic.h ****  * @brief Universal Serial Interface Channel(USIC) driver for serial communication.
 131:C:/work_mari/XMC4800/UART/Libraries/XMCLib/inc\xmc_usic.h ****  *
 132:C:/work_mari/XMC4800/UART/Libraries/XMCLib/inc\xmc_usic.h ****  * The Universal Serial Interface Channel(USIC) module is a flexible interface module
 133:C:/work_mari/XMC4800/UART/Libraries/XMCLib/inc\xmc_usic.h ****  * covering several serial communication protocols. A USIC module contains two
 134:C:/work_mari/XMC4800/UART/Libraries/XMCLib/inc\xmc_usic.h ****  * independent communication channels named USICx_CH0 and USICx_CH1, with x
 135:C:/work_mari/XMC4800/UART/Libraries/XMCLib/inc\xmc_usic.h ****  * being the number of the USIC module. The user can program, during run-time, which protocol will 
 136:C:/work_mari/XMC4800/UART/Libraries/XMCLib/inc\xmc_usic.h ****  * by each communication channel and which pins are used.
 137:C:/work_mari/XMC4800/UART/Libraries/XMCLib/inc\xmc_usic.h ****  * The driver provides APIs, configuration structures and enumerations to configure common features
 138:C:/work_mari/XMC4800/UART/Libraries/XMCLib/inc\xmc_usic.h ****  * communication protocols.
 139:C:/work_mari/XMC4800/UART/Libraries/XMCLib/inc\xmc_usic.h ****  *
 140:C:/work_mari/XMC4800/UART/Libraries/XMCLib/inc\xmc_usic.h ****  * USIC driver features:
 141:C:/work_mari/XMC4800/UART/Libraries/XMCLib/inc\xmc_usic.h ****  * -# Allows configuration of FIFO for transmit and receive functions.
 142:C:/work_mari/XMC4800/UART/Libraries/XMCLib/inc\xmc_usic.h ****  * -# Provides a structure type XMC_USIC_CH_t to represent the USIC channel registers in a programm
 143:C:/work_mari/XMC4800/UART/Libraries/XMCLib/inc\xmc_usic.h ****  friendly format.
 144:C:/work_mari/XMC4800/UART/Libraries/XMCLib/inc\xmc_usic.h ****  * -# Allows configuration of automatic update for frame length, word length, slave select or slave
 145:C:/work_mari/XMC4800/UART/Libraries/XMCLib/inc\xmc_usic.h ****  * -# Allows transmission of data to FIFO using XMC_USIC_CH_TXFIFO_PutData() and XMC_USIC_CH_TXFIFO
 146:C:/work_mari/XMC4800/UART/Libraries/XMCLib/inc\xmc_usic.h ****  * -# Allows reading of received data in FIFO using XMC_USIC_CH_RXFIFO_GetData()
 147:C:/work_mari/XMC4800/UART/Libraries/XMCLib/inc\xmc_usic.h ****  * -# Allows configuration of baudrate using XMC_USIC_CH_SetBaudrate()
 148:C:/work_mari/XMC4800/UART/Libraries/XMCLib/inc\xmc_usic.h ****  * -# Provides API to trigger interrupts using XMC_USIC_CH_TriggerServiceRequest()
 149:C:/work_mari/XMC4800/UART/Libraries/XMCLib/inc\xmc_usic.h ****  * @{
 150:C:/work_mari/XMC4800/UART/Libraries/XMCLib/inc\xmc_usic.h ****  */
 151:C:/work_mari/XMC4800/UART/Libraries/XMCLib/inc\xmc_usic.h **** 
 152:C:/work_mari/XMC4800/UART/Libraries/XMCLib/inc\xmc_usic.h **** /*******************************************************************************
 153:C:/work_mari/XMC4800/UART/Libraries/XMCLib/inc\xmc_usic.h ****  * MACROS
 154:C:/work_mari/XMC4800/UART/Libraries/XMCLib/inc\xmc_usic.h ****  *******************************************************************************/
 155:C:/work_mari/XMC4800/UART/Libraries/XMCLib/inc\xmc_usic.h **** 
 156:C:/work_mari/XMC4800/UART/Libraries/XMCLib/inc\xmc_usic.h **** #define XMC_USIC0 ((XMC_USIC_t *)USIC0_BASE)			/**< USIC0 module base address */
 157:C:/work_mari/XMC4800/UART/Libraries/XMCLib/inc\xmc_usic.h **** #define XMC_USIC0_CH0 ((XMC_USIC_CH_t *)USIC0_CH0_BASE)	/**< USIC0 channel 0 base address */
 158:C:/work_mari/XMC4800/UART/Libraries/XMCLib/inc\xmc_usic.h **** #define XMC_USIC0_CH1 ((XMC_USIC_CH_t *)USIC0_CH1_BASE)	/**< USIC0 channel 1 base address */
 159:C:/work_mari/XMC4800/UART/Libraries/XMCLib/inc\xmc_usic.h **** 
 160:C:/work_mari/XMC4800/UART/Libraries/XMCLib/inc\xmc_usic.h **** #if defined(USIC1)
 161:C:/work_mari/XMC4800/UART/Libraries/XMCLib/inc\xmc_usic.h **** #define XMC_USIC1 ((XMC_USIC_t *)USIC1_BASE)			/**< USIC1 module base address */
 162:C:/work_mari/XMC4800/UART/Libraries/XMCLib/inc\xmc_usic.h **** #define XMC_USIC1_CH0 ((XMC_USIC_CH_t *)USIC1_CH0_BASE)	/**< USIC1 channel 0 base address */
 163:C:/work_mari/XMC4800/UART/Libraries/XMCLib/inc\xmc_usic.h **** #define XMC_USIC1_CH1 ((XMC_USIC_CH_t *)USIC1_CH1_BASE)	/**< USIC1 channel 1 base address */
 164:C:/work_mari/XMC4800/UART/Libraries/XMCLib/inc\xmc_usic.h **** #endif
 165:C:/work_mari/XMC4800/UART/Libraries/XMCLib/inc\xmc_usic.h **** 
 166:C:/work_mari/XMC4800/UART/Libraries/XMCLib/inc\xmc_usic.h **** #if defined(USIC2)
 167:C:/work_mari/XMC4800/UART/Libraries/XMCLib/inc\xmc_usic.h **** #define XMC_USIC2 ((XMC_USIC_t *)USIC2_BASE)			/**< USIC2 module base address */
 168:C:/work_mari/XMC4800/UART/Libraries/XMCLib/inc\xmc_usic.h **** #define XMC_USIC2_CH0 ((XMC_USIC_CH_t *)USIC2_CH0_BASE)	/**< USIC2 channel 0 base address */
 169:C:/work_mari/XMC4800/UART/Libraries/XMCLib/inc\xmc_usic.h **** #define XMC_USIC2_CH1 ((XMC_USIC_CH_t *)USIC2_CH1_BASE)	/**< USIC2 channel 1 base address */
 170:C:/work_mari/XMC4800/UART/Libraries/XMCLib/inc\xmc_usic.h **** #endif
 171:C:/work_mari/XMC4800/UART/Libraries/XMCLib/inc\xmc_usic.h **** 
 172:C:/work_mari/XMC4800/UART/Libraries/XMCLib/inc\xmc_usic.h **** #define USIC_CH_DXCR_DSEL_Msk  USIC_CH_DX0CR_DSEL_Msk   /**< Common mask for DSEL bitfield mask in 
 173:C:/work_mari/XMC4800/UART/Libraries/XMCLib/inc\xmc_usic.h **** #define USIC_CH_DXCR_DSEL_Pos  USIC_CH_DX0CR_DSEL_Pos   /**< Common mask for DSEL bitfield position
 174:C:/work_mari/XMC4800/UART/Libraries/XMCLib/inc\xmc_usic.h **** #define USIC_CH_DXCR_SFSEL_Pos USIC_CH_DX0CR_SFSEL_Pos  /**< Common mask for SFSEL bitfield positio
 175:C:/work_mari/XMC4800/UART/Libraries/XMCLib/inc\xmc_usic.h **** #define USIC_CH_DXCR_SFSEL_Msk USIC_CH_DX0CR_SFSEL_Msk  /**< Common mask for SFSEL bitfield mask in
 176:C:/work_mari/XMC4800/UART/Libraries/XMCLib/inc\xmc_usic.h **** #define USIC_CH_DXCR_DPOL_Msk  USIC_CH_DX0CR_DPOL_Msk   /**< Common mask for DPOL bitfield mask in 
 177:C:/work_mari/XMC4800/UART/Libraries/XMCLib/inc\xmc_usic.h **** #define USIC_CH_DXCR_DFEN_Msk  USIC_CH_DX0CR_DFEN_Msk   /**< Common mask for DFEN bitfield mask in 
 178:C:/work_mari/XMC4800/UART/Libraries/XMCLib/inc\xmc_usic.h **** #define USIC_CH_DXCR_DSEN_Msk  USIC_CH_DX0CR_DSEN_Msk   /**< Common mask for DSEN bitfield mask in 
 179:C:/work_mari/XMC4800/UART/Libraries/XMCLib/inc\xmc_usic.h **** #define USIC_CH_DXCR_CM_Pos    USIC_CH_DX0CR_CM_Pos     /**< Common mask for CM bitfield position i
 180:C:/work_mari/XMC4800/UART/Libraries/XMCLib/inc\xmc_usic.h **** #define USIC_CH_DXCR_CM_Msk    USIC_CH_DX0CR_CM_Msk     /**< Common mask for CM bitfield mask in DX
 181:C:/work_mari/XMC4800/UART/Libraries/XMCLib/inc\xmc_usic.h **** #define USIC_CH_DXCR_INSW_Msk  USIC_CH_DX0CR_INSW_Msk   /**< Common mask for INSW bitfield mask in 
 182:C:/work_mari/XMC4800/UART/Libraries/XMCLib/inc\xmc_usic.h **** #define USIC_CH_DXCR_INSW_pos  USIC_CH_DX0CR_INSW_Pos   /**< Common mask for INSW bitfield position
 183:C:/work_mari/XMC4800/UART/Libraries/XMCLib/inc\xmc_usic.h **** 
 184:C:/work_mari/XMC4800/UART/Libraries/XMCLib/inc\xmc_usic.h **** #if UC_FAMILY == XMC1
 185:C:/work_mari/XMC4800/UART/Libraries/XMCLib/inc\xmc_usic.h **** #include "xmc1_usic_map.h"
 186:C:/work_mari/XMC4800/UART/Libraries/XMCLib/inc\xmc_usic.h **** #endif
 187:C:/work_mari/XMC4800/UART/Libraries/XMCLib/inc\xmc_usic.h **** 
 188:C:/work_mari/XMC4800/UART/Libraries/XMCLib/inc\xmc_usic.h **** #if UC_FAMILY == XMC4
 189:C:/work_mari/XMC4800/UART/Libraries/XMCLib/inc\xmc_usic.h **** #include "xmc4_usic_map.h"
 190:C:/work_mari/XMC4800/UART/Libraries/XMCLib/inc\xmc_usic.h **** #endif
 191:C:/work_mari/XMC4800/UART/Libraries/XMCLib/inc\xmc_usic.h **** 
 192:C:/work_mari/XMC4800/UART/Libraries/XMCLib/inc\xmc_usic.h **** /*******************************************************************************
 193:C:/work_mari/XMC4800/UART/Libraries/XMCLib/inc\xmc_usic.h ****  * ENUMS
 194:C:/work_mari/XMC4800/UART/Libraries/XMCLib/inc\xmc_usic.h ****  *******************************************************************************/
 195:C:/work_mari/XMC4800/UART/Libraries/XMCLib/inc\xmc_usic.h **** 
 196:C:/work_mari/XMC4800/UART/Libraries/XMCLib/inc\xmc_usic.h **** /**
 197:C:/work_mari/XMC4800/UART/Libraries/XMCLib/inc\xmc_usic.h ****  * USIC channel driver status
 198:C:/work_mari/XMC4800/UART/Libraries/XMCLib/inc\xmc_usic.h ****  */
 199:C:/work_mari/XMC4800/UART/Libraries/XMCLib/inc\xmc_usic.h **** typedef enum XMC_USIC_CH_STATUS
 200:C:/work_mari/XMC4800/UART/Libraries/XMCLib/inc\xmc_usic.h **** {
 201:C:/work_mari/XMC4800/UART/Libraries/XMCLib/inc\xmc_usic.h ****   XMC_USIC_CH_STATUS_OK,    /**< USIC driver status : OK */
 202:C:/work_mari/XMC4800/UART/Libraries/XMCLib/inc\xmc_usic.h ****   XMC_USIC_CH_STATUS_ERROR, /**< USIC driver status : ERROR */
 203:C:/work_mari/XMC4800/UART/Libraries/XMCLib/inc\xmc_usic.h ****   XMC_USIC_CH_STATUS_BUSY   /**< USIC driver status : BUSY */
 204:C:/work_mari/XMC4800/UART/Libraries/XMCLib/inc\xmc_usic.h **** } XMC_USIC_CH_STATUS_t;
 205:C:/work_mari/XMC4800/UART/Libraries/XMCLib/inc\xmc_usic.h **** 
 206:C:/work_mari/XMC4800/UART/Libraries/XMCLib/inc\xmc_usic.h **** /**
 207:C:/work_mari/XMC4800/UART/Libraries/XMCLib/inc\xmc_usic.h **** * USIC channel kernel mode
 208:C:/work_mari/XMC4800/UART/Libraries/XMCLib/inc\xmc_usic.h **** */
 209:C:/work_mari/XMC4800/UART/Libraries/XMCLib/inc\xmc_usic.h **** typedef enum XMC_USIC_CH_KERNEL_MODE
 210:C:/work_mari/XMC4800/UART/Libraries/XMCLib/inc\xmc_usic.h **** {
 211:C:/work_mari/XMC4800/UART/Libraries/XMCLib/inc\xmc_usic.h ****   XMC_USIC_CH_KERNEL_MODE_RUN_0  = 0x0UL,  /**< Run mode 0 (transmission and reception possible)*/
 212:C:/work_mari/XMC4800/UART/Libraries/XMCLib/inc\xmc_usic.h ****   XMC_USIC_CH_KERNEL_MODE_RUN_1  = 0x1UL << USIC_CH_KSCFG_NOMCFG_Pos,  /**< Run mode 1 (transmissio
 213:C:/work_mari/XMC4800/UART/Libraries/XMCLib/inc\xmc_usic.h ****   XMC_USIC_CH_KERNEL_MODE_STOP_0 = 0x2UL << USIC_CH_KSCFG_NOMCFG_Pos,  /**< Stop mode 0 (no transmi
 214:C:/work_mari/XMC4800/UART/Libraries/XMCLib/inc\xmc_usic.h ****   XMC_USIC_CH_KERNEL_MODE_STOP_1 = 0x3UL << USIC_CH_KSCFG_NOMCFG_Pos   /**< Stop mode 1 (both trans
 215:C:/work_mari/XMC4800/UART/Libraries/XMCLib/inc\xmc_usic.h **** } XMC_USIC_CH_KERNEL_MODE_t;
 216:C:/work_mari/XMC4800/UART/Libraries/XMCLib/inc\xmc_usic.h **** 
 217:C:/work_mari/XMC4800/UART/Libraries/XMCLib/inc\xmc_usic.h **** /**
 218:C:/work_mari/XMC4800/UART/Libraries/XMCLib/inc\xmc_usic.h ****  * USIC channel operating mode
 219:C:/work_mari/XMC4800/UART/Libraries/XMCLib/inc\xmc_usic.h ****  */
 220:C:/work_mari/XMC4800/UART/Libraries/XMCLib/inc\xmc_usic.h **** typedef enum XMC_USIC_CH_OPERATING_MODE
 221:C:/work_mari/XMC4800/UART/Libraries/XMCLib/inc\xmc_usic.h **** {
 222:C:/work_mari/XMC4800/UART/Libraries/XMCLib/inc\xmc_usic.h ****   XMC_USIC_CH_OPERATING_MODE_IDLE = 0x0UL, /**< USIC channel idle */
 223:C:/work_mari/XMC4800/UART/Libraries/XMCLib/inc\xmc_usic.h ****   XMC_USIC_CH_OPERATING_MODE_SPI  = 0x1UL << USIC_CH_CCR_MODE_Pos, /**< SPI mode */
 224:C:/work_mari/XMC4800/UART/Libraries/XMCLib/inc\xmc_usic.h ****   XMC_USIC_CH_OPERATING_MODE_UART = 0x2UL << USIC_CH_CCR_MODE_Pos, /**< UART mode */
 225:C:/work_mari/XMC4800/UART/Libraries/XMCLib/inc\xmc_usic.h ****   XMC_USIC_CH_OPERATING_MODE_I2S  = 0x3UL << USIC_CH_CCR_MODE_Pos, /**< I2S mode */
 226:C:/work_mari/XMC4800/UART/Libraries/XMCLib/inc\xmc_usic.h ****   XMC_USIC_CH_OPERATING_MODE_I2C  = 0x4UL << USIC_CH_CCR_MODE_Pos  /**< I2C mode */
 227:C:/work_mari/XMC4800/UART/Libraries/XMCLib/inc\xmc_usic.h **** } XMC_USIC_CH_OPERATING_MODE_t;
 228:C:/work_mari/XMC4800/UART/Libraries/XMCLib/inc\xmc_usic.h **** 
 229:C:/work_mari/XMC4800/UART/Libraries/XMCLib/inc\xmc_usic.h **** /**
 230:C:/work_mari/XMC4800/UART/Libraries/XMCLib/inc\xmc_usic.h ****  * USIC channel inputs
 231:C:/work_mari/XMC4800/UART/Libraries/XMCLib/inc\xmc_usic.h ****  */
 232:C:/work_mari/XMC4800/UART/Libraries/XMCLib/inc\xmc_usic.h **** typedef enum XMC_USIC_CH_INPUT
 233:C:/work_mari/XMC4800/UART/Libraries/XMCLib/inc\xmc_usic.h **** {
 234:C:/work_mari/XMC4800/UART/Libraries/XMCLib/inc\xmc_usic.h ****   XMC_USIC_CH_INPUT_DX0, /**< DX0 input */
 235:C:/work_mari/XMC4800/UART/Libraries/XMCLib/inc\xmc_usic.h ****   XMC_USIC_CH_INPUT_DX1, /**< DX1 input */
 236:C:/work_mari/XMC4800/UART/Libraries/XMCLib/inc\xmc_usic.h ****   XMC_USIC_CH_INPUT_DX2, /**< DX2 input */
 237:C:/work_mari/XMC4800/UART/Libraries/XMCLib/inc\xmc_usic.h ****   XMC_USIC_CH_INPUT_DX3, /**< DX3 input */
 238:C:/work_mari/XMC4800/UART/Libraries/XMCLib/inc\xmc_usic.h ****   XMC_USIC_CH_INPUT_DX4, /**< DX4 input */
 239:C:/work_mari/XMC4800/UART/Libraries/XMCLib/inc\xmc_usic.h ****   XMC_USIC_CH_INPUT_DX5  /**< DX5 input */
 240:C:/work_mari/XMC4800/UART/Libraries/XMCLib/inc\xmc_usic.h **** } XMC_USIC_CH_INPUT_t;
 241:C:/work_mari/XMC4800/UART/Libraries/XMCLib/inc\xmc_usic.h **** 
 242:C:/work_mari/XMC4800/UART/Libraries/XMCLib/inc\xmc_usic.h **** /**
 243:C:/work_mari/XMC4800/UART/Libraries/XMCLib/inc\xmc_usic.h ****  * USIC channel input source sampling frequency
 244:C:/work_mari/XMC4800/UART/Libraries/XMCLib/inc\xmc_usic.h ****  */
 245:C:/work_mari/XMC4800/UART/Libraries/XMCLib/inc\xmc_usic.h **** typedef enum XMC_USIC_CH_INPUT_SAMPLING_FREQ
 246:C:/work_mari/XMC4800/UART/Libraries/XMCLib/inc\xmc_usic.h **** {
 247:C:/work_mari/XMC4800/UART/Libraries/XMCLib/inc\xmc_usic.h ****   XMC_USIC_CH_INPUT_SAMPLING_FREQ_FPERIPH            = 0x0UL, /**< Use fperiph frequency for input 
 248:C:/work_mari/XMC4800/UART/Libraries/XMCLib/inc\xmc_usic.h ****   XMC_USIC_CH_INPUT_SAMPLING_FREQ_FRACTIONAL_DIVIDER = 0x1UL << USIC_CH_DXCR_SFSEL_Pos  /**< Use fF
 249:C:/work_mari/XMC4800/UART/Libraries/XMCLib/inc\xmc_usic.h **** } XMC_USIC_CH_INPUT_SAMPLING_FREQ_t;
 250:C:/work_mari/XMC4800/UART/Libraries/XMCLib/inc\xmc_usic.h **** 
 251:C:/work_mari/XMC4800/UART/Libraries/XMCLib/inc\xmc_usic.h **** /**
 252:C:/work_mari/XMC4800/UART/Libraries/XMCLib/inc\xmc_usic.h ****  * USIC channel input combination mode
 253:C:/work_mari/XMC4800/UART/Libraries/XMCLib/inc\xmc_usic.h ****  */
 254:C:/work_mari/XMC4800/UART/Libraries/XMCLib/inc\xmc_usic.h **** typedef enum XMC_USIC_CH_INPUT_COMBINATION_MODE
 255:C:/work_mari/XMC4800/UART/Libraries/XMCLib/inc\xmc_usic.h **** {
 256:C:/work_mari/XMC4800/UART/Libraries/XMCLib/inc\xmc_usic.h ****   XMC_USIC_CH_INPUT_COMBINATION_MODE_TRIGGER_DISABLED = 0x0UL, /**< The trigger activation is disab
 257:C:/work_mari/XMC4800/UART/Libraries/XMCLib/inc\xmc_usic.h ****   XMC_USIC_CH_INPUT_COMBINATION_MODE_RISING_EDGE      = 0x1UL, /**< A rising edge activates DXnT*/
 258:C:/work_mari/XMC4800/UART/Libraries/XMCLib/inc\xmc_usic.h ****   XMC_USIC_CH_INPUT_COMBINATION_MODE_FALLING_EDGE     = 0x2UL, /**< A falling edge activates DXnT*/
 259:C:/work_mari/XMC4800/UART/Libraries/XMCLib/inc\xmc_usic.h ****   XMC_USIC_CH_INPUT_COMBINATION_MODE_BOTH_EDGES       = 0x3UL, /**< Both edges activate DXnT*/
 260:C:/work_mari/XMC4800/UART/Libraries/XMCLib/inc\xmc_usic.h **** } XMC_USIC_CH_INPUT_COMBINATION_MODE_t;
 261:C:/work_mari/XMC4800/UART/Libraries/XMCLib/inc\xmc_usic.h **** 
 262:C:/work_mari/XMC4800/UART/Libraries/XMCLib/inc\xmc_usic.h **** /**
 263:C:/work_mari/XMC4800/UART/Libraries/XMCLib/inc\xmc_usic.h ****  * USIC channel data transmission start modes.
 264:C:/work_mari/XMC4800/UART/Libraries/XMCLib/inc\xmc_usic.h ****  * Data shifted out of the transmit pin depends on the value configured for the
 265:C:/work_mari/XMC4800/UART/Libraries/XMCLib/inc\xmc_usic.h ****  * TDEN bitfield of the TCSR register. Following enum values are used for configuring
 266:C:/work_mari/XMC4800/UART/Libraries/XMCLib/inc\xmc_usic.h ****  * the TCSR->TDEN bitfield.
 267:C:/work_mari/XMC4800/UART/Libraries/XMCLib/inc\xmc_usic.h ****  */
 268:C:/work_mari/XMC4800/UART/Libraries/XMCLib/inc\xmc_usic.h **** typedef enum XMC_USIC_CH_START_TRANSMISION_MODE
 269:C:/work_mari/XMC4800/UART/Libraries/XMCLib/inc\xmc_usic.h **** {
 270:C:/work_mari/XMC4800/UART/Libraries/XMCLib/inc\xmc_usic.h ****   XMC_USIC_CH_START_TRANSMISION_DISABLED      = 0x0U, /**< Passive data level is sent out on transm
 271:C:/work_mari/XMC4800/UART/Libraries/XMCLib/inc\xmc_usic.h ****   XMC_USIC_CH_START_TRANSMISION_ON_TDV        = 0x1UL << USIC_CH_TCSR_TDEN_Pos, /**< Transmission o
 272:C:/work_mari/XMC4800/UART/Libraries/XMCLib/inc\xmc_usic.h ****   XMC_USIC_CH_START_TRANSMISION_ON_TDV_DX2S_0 = 0x2UL << USIC_CH_TCSR_TDEN_Pos, /**< Transmission o
 273:C:/work_mari/XMC4800/UART/Libraries/XMCLib/inc\xmc_usic.h ****   XMC_USIC_CH_START_TRANSMISION_ON_TDV_DX2S_1 = 0x3UL << USIC_CH_TCSR_TDEN_Pos  /**< Transmission o
 274:C:/work_mari/XMC4800/UART/Libraries/XMCLib/inc\xmc_usic.h **** } XMC_USIC_CH_START_TRANSMISION_MODE_t;
 275:C:/work_mari/XMC4800/UART/Libraries/XMCLib/inc\xmc_usic.h **** 
 276:C:/work_mari/XMC4800/UART/Libraries/XMCLib/inc\xmc_usic.h **** /**
 277:C:/work_mari/XMC4800/UART/Libraries/XMCLib/inc\xmc_usic.h ****  * USIC channel interrupt node pointers
 278:C:/work_mari/XMC4800/UART/Libraries/XMCLib/inc\xmc_usic.h ****  */
 279:C:/work_mari/XMC4800/UART/Libraries/XMCLib/inc\xmc_usic.h **** typedef enum XMC_USIC_CH_INTERRUPT_NODE_POINTER
 280:C:/work_mari/XMC4800/UART/Libraries/XMCLib/inc\xmc_usic.h **** {
 281:C:/work_mari/XMC4800/UART/Libraries/XMCLib/inc\xmc_usic.h ****   XMC_USIC_CH_INTERRUPT_NODE_POINTER_TRANSMIT_SHIFT      = USIC_CH_INPR_TSINP_Pos, /**< Node pointe
 282:C:/work_mari/XMC4800/UART/Libraries/XMCLib/inc\xmc_usic.h ****   XMC_USIC_CH_INTERRUPT_NODE_POINTER_TRANSMIT_BUFFER     = USIC_CH_INPR_TBINP_Pos, /**< Node pointe
 283:C:/work_mari/XMC4800/UART/Libraries/XMCLib/inc\xmc_usic.h ****   XMC_USIC_CH_INTERRUPT_NODE_POINTER_RECEIVE             = USIC_CH_INPR_RINP_Pos,  /**< Node pointe
 284:C:/work_mari/XMC4800/UART/Libraries/XMCLib/inc\xmc_usic.h ****   XMC_USIC_CH_INTERRUPT_NODE_POINTER_ALTERNATE_RECEIVE   = USIC_CH_INPR_AINP_Pos,  /**< Node pointe
 285:C:/work_mari/XMC4800/UART/Libraries/XMCLib/inc\xmc_usic.h ****   XMC_USIC_CH_INTERRUPT_NODE_POINTER_PROTOCOL            = USIC_CH_INPR_PINP_Pos   /**< Node pointe
 286:C:/work_mari/XMC4800/UART/Libraries/XMCLib/inc\xmc_usic.h **** } XMC_USIC_CH_INTERRUPT_NODE_POINTER_t;
 287:C:/work_mari/XMC4800/UART/Libraries/XMCLib/inc\xmc_usic.h **** 
 288:C:/work_mari/XMC4800/UART/Libraries/XMCLib/inc\xmc_usic.h **** /**
 289:C:/work_mari/XMC4800/UART/Libraries/XMCLib/inc\xmc_usic.h ****  * USIC channel events
 290:C:/work_mari/XMC4800/UART/Libraries/XMCLib/inc\xmc_usic.h ****  */
 291:C:/work_mari/XMC4800/UART/Libraries/XMCLib/inc\xmc_usic.h **** typedef enum XMC_USIC_CH_EVENT
 292:C:/work_mari/XMC4800/UART/Libraries/XMCLib/inc\xmc_usic.h **** {
 293:C:/work_mari/XMC4800/UART/Libraries/XMCLib/inc\xmc_usic.h ****   XMC_USIC_CH_EVENT_RECEIVE_START       = USIC_CH_CCR_RSIEN_Msk, /**< Receive start event */
 294:C:/work_mari/XMC4800/UART/Libraries/XMCLib/inc\xmc_usic.h ****   XMC_USIC_CH_EVENT_DATA_LOST           = USIC_CH_CCR_DLIEN_Msk, /**< Data lost event */
 295:C:/work_mari/XMC4800/UART/Libraries/XMCLib/inc\xmc_usic.h ****   XMC_USIC_CH_EVENT_TRANSMIT_SHIFT      = USIC_CH_CCR_TSIEN_Msk, /**< Transmit shift event */
 296:C:/work_mari/XMC4800/UART/Libraries/XMCLib/inc\xmc_usic.h ****   XMC_USIC_CH_EVENT_TRANSMIT_BUFFER     = USIC_CH_CCR_TBIEN_Msk, /**< Transmit buffer event */
 297:C:/work_mari/XMC4800/UART/Libraries/XMCLib/inc\xmc_usic.h ****   XMC_USIC_CH_EVENT_STANDARD_RECEIVE    = USIC_CH_CCR_RIEN_Msk,  /**< Receive event */
 298:C:/work_mari/XMC4800/UART/Libraries/XMCLib/inc\xmc_usic.h ****   XMC_USIC_CH_EVENT_ALTERNATIVE_RECEIVE = USIC_CH_CCR_AIEN_Msk,  /**< Alternate receive event */
 299:C:/work_mari/XMC4800/UART/Libraries/XMCLib/inc\xmc_usic.h ****   XMC_USIC_CH_EVENT_BAUD_RATE_GENERATOR = USIC_CH_CCR_BRGIEN_Msk /**< Baudrate generator event */
 300:C:/work_mari/XMC4800/UART/Libraries/XMCLib/inc\xmc_usic.h **** } XMC_USIC_CH_EVENT_t;
 301:C:/work_mari/XMC4800/UART/Libraries/XMCLib/inc\xmc_usic.h **** 
 302:C:/work_mari/XMC4800/UART/Libraries/XMCLib/inc\xmc_usic.h **** /**
 303:C:/work_mari/XMC4800/UART/Libraries/XMCLib/inc\xmc_usic.h **** * USIC channel parity mode
 304:C:/work_mari/XMC4800/UART/Libraries/XMCLib/inc\xmc_usic.h **** */
 305:C:/work_mari/XMC4800/UART/Libraries/XMCLib/inc\xmc_usic.h **** typedef enum XMC_USIC_CH_PARITY_MODE
 306:C:/work_mari/XMC4800/UART/Libraries/XMCLib/inc\xmc_usic.h **** {
 307:C:/work_mari/XMC4800/UART/Libraries/XMCLib/inc\xmc_usic.h ****   XMC_USIC_CH_PARITY_MODE_NONE     = 0x0UL,  /**< Disable parity mode */
 308:C:/work_mari/XMC4800/UART/Libraries/XMCLib/inc\xmc_usic.h ****   XMC_USIC_CH_PARITY_MODE_EVEN     = 0x2UL << USIC_CH_CCR_PM_Pos,  /**< Enable even parity mode */
 309:C:/work_mari/XMC4800/UART/Libraries/XMCLib/inc\xmc_usic.h ****   XMC_USIC_CH_PARITY_MODE_ODD      = 0x3UL << USIC_CH_CCR_PM_Pos   /**< Enable odd parity mode */
 310:C:/work_mari/XMC4800/UART/Libraries/XMCLib/inc\xmc_usic.h **** } XMC_USIC_CH_PARITY_MODE_t;
 311:C:/work_mari/XMC4800/UART/Libraries/XMCLib/inc\xmc_usic.h **** 
 312:C:/work_mari/XMC4800/UART/Libraries/XMCLib/inc\xmc_usic.h **** /**
 313:C:/work_mari/XMC4800/UART/Libraries/XMCLib/inc\xmc_usic.h **** * USIC channel data output mode
 314:C:/work_mari/XMC4800/UART/Libraries/XMCLib/inc\xmc_usic.h **** */
 315:C:/work_mari/XMC4800/UART/Libraries/XMCLib/inc\xmc_usic.h **** typedef enum XMC_USIC_CH_DATA_OUTPUT_MODE
 316:C:/work_mari/XMC4800/UART/Libraries/XMCLib/inc\xmc_usic.h **** {
 317:C:/work_mari/XMC4800/UART/Libraries/XMCLib/inc\xmc_usic.h ****   XMC_USIC_CH_DATA_OUTPUT_MODE_NORMAL   = 0x0UL,  /**< Data output normal mode */
 318:C:/work_mari/XMC4800/UART/Libraries/XMCLib/inc\xmc_usic.h ****   XMC_USIC_CH_DATA_OUTPUT_MODE_INVERTED = 0x1UL << USIC_CH_SCTR_DOCFG_Pos   /**< Data output invert
 319:C:/work_mari/XMC4800/UART/Libraries/XMCLib/inc\xmc_usic.h **** } XMC_USIC_CH_DATA_OUTPUT_MODE_t;
 320:C:/work_mari/XMC4800/UART/Libraries/XMCLib/inc\xmc_usic.h **** 
 321:C:/work_mari/XMC4800/UART/Libraries/XMCLib/inc\xmc_usic.h **** /**
 322:C:/work_mari/XMC4800/UART/Libraries/XMCLib/inc\xmc_usic.h **** * USIC channel data transmit buffer status
 323:C:/work_mari/XMC4800/UART/Libraries/XMCLib/inc\xmc_usic.h **** */
 324:C:/work_mari/XMC4800/UART/Libraries/XMCLib/inc\xmc_usic.h **** typedef enum XMC_USIC_CH_TBUF_STATUS
 325:C:/work_mari/XMC4800/UART/Libraries/XMCLib/inc\xmc_usic.h **** {
 326:C:/work_mari/XMC4800/UART/Libraries/XMCLib/inc\xmc_usic.h ****   XMC_USIC_CH_TBUF_STATUS_IDLE = 0x0UL,                 /**< Transfer buffer is currently idle*/
 327:C:/work_mari/XMC4800/UART/Libraries/XMCLib/inc\xmc_usic.h ****   XMC_USIC_CH_TBUF_STATUS_BUSY = USIC_CH_TCSR_TDV_Msk   /**< Transfer buffer is currently busy*/
 328:C:/work_mari/XMC4800/UART/Libraries/XMCLib/inc\xmc_usic.h **** } XMC_USIC_CH_TBUF_STATUS_t;
 329:C:/work_mari/XMC4800/UART/Libraries/XMCLib/inc\xmc_usic.h **** 
 330:C:/work_mari/XMC4800/UART/Libraries/XMCLib/inc\xmc_usic.h **** 
 331:C:/work_mari/XMC4800/UART/Libraries/XMCLib/inc\xmc_usic.h **** 
 332:C:/work_mari/XMC4800/UART/Libraries/XMCLib/inc\xmc_usic.h **** /**
 333:C:/work_mari/XMC4800/UART/Libraries/XMCLib/inc\xmc_usic.h **** * USIC channel data transmit buffer status modification
 334:C:/work_mari/XMC4800/UART/Libraries/XMCLib/inc\xmc_usic.h **** */
 335:C:/work_mari/XMC4800/UART/Libraries/XMCLib/inc\xmc_usic.h **** typedef enum XMC_USIC_CH_TBUF_STATUS_SET
 336:C:/work_mari/XMC4800/UART/Libraries/XMCLib/inc\xmc_usic.h **** {
 337:C:/work_mari/XMC4800/UART/Libraries/XMCLib/inc\xmc_usic.h ****   XMC_USIC_CH_TBUF_STATUS_SET_BUSY   = 0x1UL, /**< Set Transfer buffer status to busy*/
 338:C:/work_mari/XMC4800/UART/Libraries/XMCLib/inc\xmc_usic.h ****   XMC_USIC_CH_TBUF_STATUS_SET_IDLE   = 0x2UL  /**< Set Transfer buffer status to idle*/
 339:C:/work_mari/XMC4800/UART/Libraries/XMCLib/inc\xmc_usic.h **** } XMC_USIC_CH_TBUF_STATUS_SET_t;
 340:C:/work_mari/XMC4800/UART/Libraries/XMCLib/inc\xmc_usic.h **** 
 341:C:/work_mari/XMC4800/UART/Libraries/XMCLib/inc\xmc_usic.h **** /**
 342:C:/work_mari/XMC4800/UART/Libraries/XMCLib/inc\xmc_usic.h **** * USIC channel receive buffer status
 343:C:/work_mari/XMC4800/UART/Libraries/XMCLib/inc\xmc_usic.h **** */
 344:C:/work_mari/XMC4800/UART/Libraries/XMCLib/inc\xmc_usic.h **** typedef enum XMC_USIC_CH_RBUF_STATUS
 345:C:/work_mari/XMC4800/UART/Libraries/XMCLib/inc\xmc_usic.h **** {
 346:C:/work_mari/XMC4800/UART/Libraries/XMCLib/inc\xmc_usic.h ****   XMC_USIC_CH_RBUF_STATUS_DATA_VALID0 = USIC_CH_RBUFSR_RDV0_Msk, /**< RBUF0 data has not yet been r
 347:C:/work_mari/XMC4800/UART/Libraries/XMCLib/inc\xmc_usic.h ****   XMC_USIC_CH_RBUF_STATUS_DATA_VALID1 = USIC_CH_RBUFSR_RDV1_Msk  /**< RBUF1 data has not yet been r
 348:C:/work_mari/XMC4800/UART/Libraries/XMCLib/inc\xmc_usic.h **** } XMC_USIC_CH_RBUF_STATUS_t;
 349:C:/work_mari/XMC4800/UART/Libraries/XMCLib/inc\xmc_usic.h **** 
 350:C:/work_mari/XMC4800/UART/Libraries/XMCLib/inc\xmc_usic.h **** /**
 351:C:/work_mari/XMC4800/UART/Libraries/XMCLib/inc\xmc_usic.h ****  * USIC channel output signal passive data level
 352:C:/work_mari/XMC4800/UART/Libraries/XMCLib/inc\xmc_usic.h **** */
 353:C:/work_mari/XMC4800/UART/Libraries/XMCLib/inc\xmc_usic.h **** typedef enum XMC_USCI_CH_PASSIVE_DATA_LEVEL
 354:C:/work_mari/XMC4800/UART/Libraries/XMCLib/inc\xmc_usic.h **** {
 355:C:/work_mari/XMC4800/UART/Libraries/XMCLib/inc\xmc_usic.h ****   XMC_USIC_CH_PASSIVE_DATA_LEVEL0 = 0x0UL, /**< Passive level(idle mode signal level) 0 */
 356:C:/work_mari/XMC4800/UART/Libraries/XMCLib/inc\xmc_usic.h ****   XMC_USIC_CH_PASSIVE_DATA_LEVEL1 = 0x1UL << USIC_CH_SCTR_PDL_Pos  /**< Passive level(idle mode sig
 357:C:/work_mari/XMC4800/UART/Libraries/XMCLib/inc\xmc_usic.h **** } XMC_USIC_CH_PASSIVE_DATA_LEVEL_t;
 358:C:/work_mari/XMC4800/UART/Libraries/XMCLib/inc\xmc_usic.h **** 
 359:C:/work_mari/XMC4800/UART/Libraries/XMCLib/inc\xmc_usic.h **** /**
 360:C:/work_mari/XMC4800/UART/Libraries/XMCLib/inc\xmc_usic.h **** * USIC channel receive FIFO size
 361:C:/work_mari/XMC4800/UART/Libraries/XMCLib/inc\xmc_usic.h **** */
 362:C:/work_mari/XMC4800/UART/Libraries/XMCLib/inc\xmc_usic.h **** typedef enum XMC_USIC_CH_FIFO_SIZE
 363:C:/work_mari/XMC4800/UART/Libraries/XMCLib/inc\xmc_usic.h **** {
 364:C:/work_mari/XMC4800/UART/Libraries/XMCLib/inc\xmc_usic.h ****   XMC_USIC_CH_FIFO_DISABLED     = 0x0U,  /**< FIFO Disabled */
 365:C:/work_mari/XMC4800/UART/Libraries/XMCLib/inc\xmc_usic.h ****   XMC_USIC_CH_FIFO_SIZE_2WORDS  = 0x1U,  /**< FIFO size: 2 words */
 366:C:/work_mari/XMC4800/UART/Libraries/XMCLib/inc\xmc_usic.h ****   XMC_USIC_CH_FIFO_SIZE_4WORDS  = 0x2U,  /**< FIFO size: 4 words */
 367:C:/work_mari/XMC4800/UART/Libraries/XMCLib/inc\xmc_usic.h ****   XMC_USIC_CH_FIFO_SIZE_8WORDS  = 0x3U,  /**< FIFO size: 8 words */
 368:C:/work_mari/XMC4800/UART/Libraries/XMCLib/inc\xmc_usic.h ****   XMC_USIC_CH_FIFO_SIZE_16WORDS = 0x4U,  /**< FIFO size: 16 words */
 369:C:/work_mari/XMC4800/UART/Libraries/XMCLib/inc\xmc_usic.h ****   XMC_USIC_CH_FIFO_SIZE_32WORDS = 0x5U,  /**< FIFO size: 32 words */
 370:C:/work_mari/XMC4800/UART/Libraries/XMCLib/inc\xmc_usic.h ****   XMC_USIC_CH_FIFO_SIZE_64WORDS = 0x6U   /**< FIFO size: 64 words */
 371:C:/work_mari/XMC4800/UART/Libraries/XMCLib/inc\xmc_usic.h **** } XMC_USIC_CH_FIFO_SIZE_t;
 372:C:/work_mari/XMC4800/UART/Libraries/XMCLib/inc\xmc_usic.h **** 
 373:C:/work_mari/XMC4800/UART/Libraries/XMCLib/inc\xmc_usic.h **** /**
 374:C:/work_mari/XMC4800/UART/Libraries/XMCLib/inc\xmc_usic.h **** * USIC channel transmit FIFO interrupt node pointers
 375:C:/work_mari/XMC4800/UART/Libraries/XMCLib/inc\xmc_usic.h **** */
 376:C:/work_mari/XMC4800/UART/Libraries/XMCLib/inc\xmc_usic.h **** typedef enum XMC_USIC_CH_TXFIFO_INTERRUPT_NODE_POINTER
 377:C:/work_mari/XMC4800/UART/Libraries/XMCLib/inc\xmc_usic.h **** {
 378:C:/work_mari/XMC4800/UART/Libraries/XMCLib/inc\xmc_usic.h ****   XMC_USIC_CH_TXFIFO_INTERRUPT_NODE_POINTER_STANDARD  = USIC_CH_TBCTR_STBINP_Pos,  /**< Node pointe
 379:C:/work_mari/XMC4800/UART/Libraries/XMCLib/inc\xmc_usic.h ****   XMC_USIC_CH_TXFIFO_INTERRUPT_NODE_POINTER_ALTERNATE = USIC_CH_TBCTR_ATBINP_Pos   /**< Node pointe
 380:C:/work_mari/XMC4800/UART/Libraries/XMCLib/inc\xmc_usic.h **** } XMC_USIC_CH_TXFIFO_INTERRUPT_NODE_POINTER_t;
 381:C:/work_mari/XMC4800/UART/Libraries/XMCLib/inc\xmc_usic.h **** 
 382:C:/work_mari/XMC4800/UART/Libraries/XMCLib/inc\xmc_usic.h **** /**
 383:C:/work_mari/XMC4800/UART/Libraries/XMCLib/inc\xmc_usic.h **** * USIC channel transmit FIFO event configuration
 384:C:/work_mari/XMC4800/UART/Libraries/XMCLib/inc\xmc_usic.h **** */
 385:C:/work_mari/XMC4800/UART/Libraries/XMCLib/inc\xmc_usic.h **** typedef enum XMC_USIC_CH_TXFIFO_EVENT_CONF
 386:C:/work_mari/XMC4800/UART/Libraries/XMCLib/inc\xmc_usic.h **** {
 387:C:/work_mari/XMC4800/UART/Libraries/XMCLib/inc\xmc_usic.h ****   XMC_USIC_CH_TXFIFO_EVENT_CONF_STANDARD  = USIC_CH_TBCTR_STBIEN_Msk,   /**< Enable FIFO standard t
 388:C:/work_mari/XMC4800/UART/Libraries/XMCLib/inc\xmc_usic.h ****   XMC_USIC_CH_TXFIFO_EVENT_CONF_ERROR     = (int32_t)USIC_CH_TBCTR_TBERIEN_Msk  /**< Enable transmi
 389:C:/work_mari/XMC4800/UART/Libraries/XMCLib/inc\xmc_usic.h **** } XMC_USIC_CH_TXFIFO_EVENT_CONF_t;
 390:C:/work_mari/XMC4800/UART/Libraries/XMCLib/inc\xmc_usic.h **** 
 391:C:/work_mari/XMC4800/UART/Libraries/XMCLib/inc\xmc_usic.h **** /**
 392:C:/work_mari/XMC4800/UART/Libraries/XMCLib/inc\xmc_usic.h **** * USIC channel transmit FIFO status
 393:C:/work_mari/XMC4800/UART/Libraries/XMCLib/inc\xmc_usic.h **** */
 394:C:/work_mari/XMC4800/UART/Libraries/XMCLib/inc\xmc_usic.h **** typedef enum XMC_USIC_CH_TXFIFO_EVENT
 395:C:/work_mari/XMC4800/UART/Libraries/XMCLib/inc\xmc_usic.h **** {
 396:C:/work_mari/XMC4800/UART/Libraries/XMCLib/inc\xmc_usic.h ****   XMC_USIC_CH_TXFIFO_EVENT_STANDARD = USIC_CH_TRBSR_STBI_Msk,    /**< Transmit FIFO status: Standar
 397:C:/work_mari/XMC4800/UART/Libraries/XMCLib/inc\xmc_usic.h ****   XMC_USIC_CH_TXFIFO_EVENT_ERROR    = USIC_CH_TRBSR_TBERI_Msk    /**< Transmit FIFO status: Error e
 398:C:/work_mari/XMC4800/UART/Libraries/XMCLib/inc\xmc_usic.h **** } XMC_USIC_CH_TXFIFO_EVENT_t;
 399:C:/work_mari/XMC4800/UART/Libraries/XMCLib/inc\xmc_usic.h **** 
 400:C:/work_mari/XMC4800/UART/Libraries/XMCLib/inc\xmc_usic.h **** /**
 401:C:/work_mari/XMC4800/UART/Libraries/XMCLib/inc\xmc_usic.h **** * USIC channel receive FIFO interrupt node pointers
 402:C:/work_mari/XMC4800/UART/Libraries/XMCLib/inc\xmc_usic.h **** */
 403:C:/work_mari/XMC4800/UART/Libraries/XMCLib/inc\xmc_usic.h **** typedef enum XMC_USIC_CH_RXFIFO_INTERRUPT_NODE_POINTER
 404:C:/work_mari/XMC4800/UART/Libraries/XMCLib/inc\xmc_usic.h **** {
 405:C:/work_mari/XMC4800/UART/Libraries/XMCLib/inc\xmc_usic.h ****   XMC_USIC_CH_RXFIFO_INTERRUPT_NODE_POINTER_STANDARD  = USIC_CH_RBCTR_SRBINP_Pos, /**< Node pointer
 406:C:/work_mari/XMC4800/UART/Libraries/XMCLib/inc\xmc_usic.h ****   XMC_USIC_CH_RXFIFO_INTERRUPT_NODE_POINTER_ALTERNATE = USIC_CH_RBCTR_ARBINP_Pos  /**< Node pointer
 407:C:/work_mari/XMC4800/UART/Libraries/XMCLib/inc\xmc_usic.h **** } XMC_USIC_CH_RXFIFO_INTERRUPT_NODE_POINTER_t;
 408:C:/work_mari/XMC4800/UART/Libraries/XMCLib/inc\xmc_usic.h **** 
 409:C:/work_mari/XMC4800/UART/Libraries/XMCLib/inc\xmc_usic.h **** /**
 410:C:/work_mari/XMC4800/UART/Libraries/XMCLib/inc\xmc_usic.h **** * USIC channel receive FIFO event configuration
 411:C:/work_mari/XMC4800/UART/Libraries/XMCLib/inc\xmc_usic.h **** */
 412:C:/work_mari/XMC4800/UART/Libraries/XMCLib/inc\xmc_usic.h **** typedef enum XMC_USIC_CH_RXFIFO_EVENT_CONF
 413:C:/work_mari/XMC4800/UART/Libraries/XMCLib/inc\xmc_usic.h **** {
 414:C:/work_mari/XMC4800/UART/Libraries/XMCLib/inc\xmc_usic.h ****   XMC_USIC_CH_RXFIFO_EVENT_CONF_STANDARD  = USIC_CH_RBCTR_SRBIEN_Msk,   /**< Enable FIFO standard r
 415:C:/work_mari/XMC4800/UART/Libraries/XMCLib/inc\xmc_usic.h ****   XMC_USIC_CH_RXFIFO_EVENT_CONF_ERROR     = (int32_t)USIC_CH_RBCTR_RBERIEN_Msk,  /**< Enable receiv
 416:C:/work_mari/XMC4800/UART/Libraries/XMCLib/inc\xmc_usic.h ****   XMC_USIC_CH_RXFIFO_EVENT_CONF_ALTERNATE = USIC_CH_RBCTR_ARBIEN_Msk   /**< Enable FIFO alternative
 417:C:/work_mari/XMC4800/UART/Libraries/XMCLib/inc\xmc_usic.h **** } XMC_USIC_CH_RXFIFO_EVENT_CONF_t;
 418:C:/work_mari/XMC4800/UART/Libraries/XMCLib/inc\xmc_usic.h **** 
 419:C:/work_mari/XMC4800/UART/Libraries/XMCLib/inc\xmc_usic.h **** /**
 420:C:/work_mari/XMC4800/UART/Libraries/XMCLib/inc\xmc_usic.h **** * USIC channel receive FIFO status
 421:C:/work_mari/XMC4800/UART/Libraries/XMCLib/inc\xmc_usic.h **** */
 422:C:/work_mari/XMC4800/UART/Libraries/XMCLib/inc\xmc_usic.h **** typedef enum XMC_USIC_CH_RXFIFO_EVENT
 423:C:/work_mari/XMC4800/UART/Libraries/XMCLib/inc\xmc_usic.h **** {
 424:C:/work_mari/XMC4800/UART/Libraries/XMCLib/inc\xmc_usic.h ****   XMC_USIC_CH_RXFIFO_EVENT_STANDARD  = USIC_CH_TRBSR_SRBI_Msk,   /**< Receive FIFO status: Standard
 425:C:/work_mari/XMC4800/UART/Libraries/XMCLib/inc\xmc_usic.h ****   XMC_USIC_CH_RXFIFO_EVENT_ERROR     = USIC_CH_TRBSR_RBERI_Msk,  /**< Receive FIFO status: Error ev
 426:C:/work_mari/XMC4800/UART/Libraries/XMCLib/inc\xmc_usic.h ****   XMC_USIC_CH_RXFIFO_EVENT_ALTERNATE = USIC_CH_TRBSR_ARBI_Msk    /**< Receive FIFO status: Alternat
 427:C:/work_mari/XMC4800/UART/Libraries/XMCLib/inc\xmc_usic.h **** } XMC_USIC_CH_RXFIFO_EVENT_t;
 428:C:/work_mari/XMC4800/UART/Libraries/XMCLib/inc\xmc_usic.h **** 
 429:C:/work_mari/XMC4800/UART/Libraries/XMCLib/inc\xmc_usic.h **** /**
 430:C:/work_mari/XMC4800/UART/Libraries/XMCLib/inc\xmc_usic.h **** * USIC channel baudrate generator clock source
 431:C:/work_mari/XMC4800/UART/Libraries/XMCLib/inc\xmc_usic.h **** */
 432:C:/work_mari/XMC4800/UART/Libraries/XMCLib/inc\xmc_usic.h **** typedef enum XMC_USIC_CH_BRG_CLOCK_SOURCE
 433:C:/work_mari/XMC4800/UART/Libraries/XMCLib/inc\xmc_usic.h **** {
 434:C:/work_mari/XMC4800/UART/Libraries/XMCLib/inc\xmc_usic.h ****   XMC_USIC_CH_BRG_CLOCK_SOURCE_DIVIDER = 0x0UL, /**< Baudrate generator clock source : Source divid
 435:C:/work_mari/XMC4800/UART/Libraries/XMCLib/inc\xmc_usic.h ****   XMC_USIC_CH_BRG_CLOCK_SOURCE_DX1T    = 0x2UL << USIC_CH_BRG_CLKSEL_Pos,  /**< Baudrate generator 
 436:C:/work_mari/XMC4800/UART/Libraries/XMCLib/inc\xmc_usic.h ****   XMC_USIC_CH_BRG_CLOCK_SOURCE_DX1S    = 0x3UL << USIC_CH_BRG_CLKSEL_Pos  /**< Baudrate generator c
 437:C:/work_mari/XMC4800/UART/Libraries/XMCLib/inc\xmc_usic.h **** } XMC_USIC_CH_BRG_CLOCK_SOURCE_t;
 438:C:/work_mari/XMC4800/UART/Libraries/XMCLib/inc\xmc_usic.h **** 
 439:C:/work_mari/XMC4800/UART/Libraries/XMCLib/inc\xmc_usic.h **** /**
 440:C:/work_mari/XMC4800/UART/Libraries/XMCLib/inc\xmc_usic.h **** * USIC channel input selection for CTQ
 441:C:/work_mari/XMC4800/UART/Libraries/XMCLib/inc\xmc_usic.h **** */
 442:C:/work_mari/XMC4800/UART/Libraries/XMCLib/inc\xmc_usic.h **** typedef enum XMC_USIC_CH_BRG_CTQSEL
 443:C:/work_mari/XMC4800/UART/Libraries/XMCLib/inc\xmc_usic.h **** {
 444:C:/work_mari/XMC4800/UART/Libraries/XMCLib/inc\xmc_usic.h ****   XMC_USIC_CH_BRG_CTQSEL_PDIV = 0x0UL, /**< fCTQIN = fPDIV */
 445:C:/work_mari/XMC4800/UART/Libraries/XMCLib/inc\xmc_usic.h ****   XMC_USIC_CH_BRG_CTQSEL_PPP  = 0x1UL << USIC_CH_BRG_CTQSEL_Pos,  /**< fCTQIN = fPPP */
 446:C:/work_mari/XMC4800/UART/Libraries/XMCLib/inc\xmc_usic.h ****   XMC_USIC_CH_BRG_CTQSEL_SCLK = 0x2UL << USIC_CH_BRG_CTQSEL_Pos,  /**< fCTQIN = fSCLK */
 447:C:/work_mari/XMC4800/UART/Libraries/XMCLib/inc\xmc_usic.h ****   XMC_USIC_CH_BRG_CTQSEL_MCLK = 0x3UL << USIC_CH_BRG_CTQSEL_Pos  /**< fCTQIN = fMCLK */
 448:C:/work_mari/XMC4800/UART/Libraries/XMCLib/inc\xmc_usic.h **** } XMC_USIC_CH_BRG_CTQSEL_t;
 449:C:/work_mari/XMC4800/UART/Libraries/XMCLib/inc\xmc_usic.h **** 
 450:C:/work_mari/XMC4800/UART/Libraries/XMCLib/inc\xmc_usic.h **** 
 451:C:/work_mari/XMC4800/UART/Libraries/XMCLib/inc\xmc_usic.h **** /**
 452:C:/work_mari/XMC4800/UART/Libraries/XMCLib/inc\xmc_usic.h **** * USIC channel baudrate generator divider mode
 453:C:/work_mari/XMC4800/UART/Libraries/XMCLib/inc\xmc_usic.h **** */
 454:C:/work_mari/XMC4800/UART/Libraries/XMCLib/inc\xmc_usic.h **** typedef enum XMC_USIC_CH_BRG_CLOCK_DIVIDER_MODE
 455:C:/work_mari/XMC4800/UART/Libraries/XMCLib/inc\xmc_usic.h **** {
 456:C:/work_mari/XMC4800/UART/Libraries/XMCLib/inc\xmc_usic.h ****   XMC_USIC_CH_BRG_CLOCK_DIVIDER_MODE_DISABLED   = 0x0UL, /**< Baudrate generator clock divider: Dis
 457:C:/work_mari/XMC4800/UART/Libraries/XMCLib/inc\xmc_usic.h ****   XMC_USIC_CH_BRG_CLOCK_DIVIDER_MODE_NORMAL     = 0x1UL << USIC_CH_FDR_DM_Pos, /**< Baudrate genera
 458:C:/work_mari/XMC4800/UART/Libraries/XMCLib/inc\xmc_usic.h ****   XMC_USIC_CH_BRG_CLOCK_DIVIDER_MODE_FRACTIONAL = 0x2UL << USIC_CH_FDR_DM_Pos  /**< Baudrate genera
 459:C:/work_mari/XMC4800/UART/Libraries/XMCLib/inc\xmc_usic.h **** } XMC_USIC_CH_BRG_CLOCK_DIVIDER_MODE_t;
 460:C:/work_mari/XMC4800/UART/Libraries/XMCLib/inc\xmc_usic.h **** 
 461:C:/work_mari/XMC4800/UART/Libraries/XMCLib/inc\xmc_usic.h **** /**
 462:C:/work_mari/XMC4800/UART/Libraries/XMCLib/inc\xmc_usic.h **** * USIC channel baudrate generator master clock passive level
 463:C:/work_mari/XMC4800/UART/Libraries/XMCLib/inc\xmc_usic.h **** */
 464:C:/work_mari/XMC4800/UART/Libraries/XMCLib/inc\xmc_usic.h **** typedef enum XMC_USIC_CH_BRG_MASTER_CLOCK_PASSIVE_LEVEL
 465:C:/work_mari/XMC4800/UART/Libraries/XMCLib/inc\xmc_usic.h **** {
 466:C:/work_mari/XMC4800/UART/Libraries/XMCLib/inc\xmc_usic.h ****   XMC_USIC_CH_BRG_MASTER_CLOCK_PASSIVE_LEVEL_0 = 0x0UL, /**< Baudrate generator master clock passiv
 467:C:/work_mari/XMC4800/UART/Libraries/XMCLib/inc\xmc_usic.h ****   XMC_USIC_CH_BRG_MASTER_CLOCK_PASSIVE_LEVEL_1 = 0x1UL << USIC_CH_BRG_MCLKCFG_Pos  /**< Baudrate ge
 468:C:/work_mari/XMC4800/UART/Libraries/XMCLib/inc\xmc_usic.h **** } XMC_USIC_CH_BRG_MASTER_CLOCK_PASSIVE_LEVEL_t;
 469:C:/work_mari/XMC4800/UART/Libraries/XMCLib/inc\xmc_usic.h **** 
 470:C:/work_mari/XMC4800/UART/Libraries/XMCLib/inc\xmc_usic.h **** /**
 471:C:/work_mari/XMC4800/UART/Libraries/XMCLib/inc\xmc_usic.h **** * USIC channel baudrate generator shift clock passive level
 472:C:/work_mari/XMC4800/UART/Libraries/XMCLib/inc\xmc_usic.h **** */
 473:C:/work_mari/XMC4800/UART/Libraries/XMCLib/inc\xmc_usic.h **** typedef enum XMC_USIC_CH_BRG_SHIFT_CLOCK_PASSIVE_LEVEL
 474:C:/work_mari/XMC4800/UART/Libraries/XMCLib/inc\xmc_usic.h **** {
 475:C:/work_mari/XMC4800/UART/Libraries/XMCLib/inc\xmc_usic.h ****   XMC_USIC_CH_BRG_SHIFT_CLOCK_PASSIVE_LEVEL_0_DELAY_DISABLED = 0x0UL, /**< Shift clock passive leve
 476:C:/work_mari/XMC4800/UART/Libraries/XMCLib/inc\xmc_usic.h ****   XMC_USIC_CH_BRG_SHIFT_CLOCK_PASSIVE_LEVEL_1_DELAY_DISABLED = 0x1UL << USIC_CH_BRG_SCLKCFG_Pos, /*
 477:C:/work_mari/XMC4800/UART/Libraries/XMCLib/inc\xmc_usic.h ****   XMC_USIC_CH_BRG_SHIFT_CLOCK_PASSIVE_LEVEL_0_DELAY_ENABLED  = (int32_t)(0x2UL << USIC_CH_BRG_SCLKC
 478:C:/work_mari/XMC4800/UART/Libraries/XMCLib/inc\xmc_usic.h ****   XMC_USIC_CH_BRG_SHIFT_CLOCK_PASSIVE_LEVEL_1_DELAY_ENABLED  = (int32_t)(0x3UL << USIC_CH_BRG_SCLKC
 479:C:/work_mari/XMC4800/UART/Libraries/XMCLib/inc\xmc_usic.h **** } XMC_USIC_CH_BRG_SHIFT_CLOCK_PASSIVE_LEVEL_t;
 480:C:/work_mari/XMC4800/UART/Libraries/XMCLib/inc\xmc_usic.h **** 
 481:C:/work_mari/XMC4800/UART/Libraries/XMCLib/inc\xmc_usic.h **** /**
 482:C:/work_mari/XMC4800/UART/Libraries/XMCLib/inc\xmc_usic.h **** * USIC channel baudrate generator shift clock output
 483:C:/work_mari/XMC4800/UART/Libraries/XMCLib/inc\xmc_usic.h **** */
 484:C:/work_mari/XMC4800/UART/Libraries/XMCLib/inc\xmc_usic.h **** typedef enum XMC_USIC_CH_BRG_SHIFT_CLOCK_OUTPUT
 485:C:/work_mari/XMC4800/UART/Libraries/XMCLib/inc\xmc_usic.h **** {
 486:C:/work_mari/XMC4800/UART/Libraries/XMCLib/inc\xmc_usic.h ****   XMC_USIC_CH_BRG_SHIFT_CLOCK_OUTPUT_SCLK = 0x0UL, /**< Baudrate generator shift clock output: SCL.
 487:C:/work_mari/XMC4800/UART/Libraries/XMCLib/inc\xmc_usic.h ****   XMC_USIC_CH_BRG_SHIFT_CLOCK_OUTPUT_DX1 = 0x1UL << USIC_CH_BRG_SCLKOSEL_Pos   /**< Baudrate genera
 488:C:/work_mari/XMC4800/UART/Libraries/XMCLib/inc\xmc_usic.h **** } XMC_USIC_CH_BRG_SHIFT_CLOCK_OUTPUT_t;
 489:C:/work_mari/XMC4800/UART/Libraries/XMCLib/inc\xmc_usic.h **** 
 490:C:/work_mari/XMC4800/UART/Libraries/XMCLib/inc\xmc_usic.h **** /**
 491:C:/work_mari/XMC4800/UART/Libraries/XMCLib/inc\xmc_usic.h **** * USIC channel shift direction.
 492:C:/work_mari/XMC4800/UART/Libraries/XMCLib/inc\xmc_usic.h **** * Defines the shift direction of the data words for transmission and reception
 493:C:/work_mari/XMC4800/UART/Libraries/XMCLib/inc\xmc_usic.h **** */
 494:C:/work_mari/XMC4800/UART/Libraries/XMCLib/inc\xmc_usic.h **** typedef enum XMC_USIC_CH_SHIFT_DIRECTION
 495:C:/work_mari/XMC4800/UART/Libraries/XMCLib/inc\xmc_usic.h **** {
 496:C:/work_mari/XMC4800/UART/Libraries/XMCLib/inc\xmc_usic.h ****   XMC_USIC_CH_SHIFT_DIRECTION_LSB_FIRST = 0x0UL, /**< Shift LSB first. The first data bit of a data
 497:C:/work_mari/XMC4800/UART/Libraries/XMCLib/inc\xmc_usic.h ****   XMC_USIC_CH_SHIFT_DIRECTION_MSB_FIRST = 0x1UL << USIC_CH_SCTR_SDIR_Pos /**< Shift MSB first. The 
 498:C:/work_mari/XMC4800/UART/Libraries/XMCLib/inc\xmc_usic.h **** } XMC_USIC_CH_SHIFT_DIRECTION_t;
 499:C:/work_mari/XMC4800/UART/Libraries/XMCLib/inc\xmc_usic.h **** 
 500:C:/work_mari/XMC4800/UART/Libraries/XMCLib/inc\xmc_usic.h **** 
 501:C:/work_mari/XMC4800/UART/Libraries/XMCLib/inc\xmc_usic.h **** /*******************************************************************************
 502:C:/work_mari/XMC4800/UART/Libraries/XMCLib/inc\xmc_usic.h ****  * DATA STRUCTURES
 503:C:/work_mari/XMC4800/UART/Libraries/XMCLib/inc\xmc_usic.h ****  *******************************************************************************/
 504:C:/work_mari/XMC4800/UART/Libraries/XMCLib/inc\xmc_usic.h **** 
 505:C:/work_mari/XMC4800/UART/Libraries/XMCLib/inc\xmc_usic.h **** /*Anonymous structure/union guard start*/
 506:C:/work_mari/XMC4800/UART/Libraries/XMCLib/inc\xmc_usic.h **** #if defined(__CC_ARM)
 507:C:/work_mari/XMC4800/UART/Libraries/XMCLib/inc\xmc_usic.h **** #pragma push
 508:C:/work_mari/XMC4800/UART/Libraries/XMCLib/inc\xmc_usic.h **** #pragma anon_unions
 509:C:/work_mari/XMC4800/UART/Libraries/XMCLib/inc\xmc_usic.h **** #elif defined(__TASKING__)
 510:C:/work_mari/XMC4800/UART/Libraries/XMCLib/inc\xmc_usic.h **** #pragma warning 586
 511:C:/work_mari/XMC4800/UART/Libraries/XMCLib/inc\xmc_usic.h **** #endif
 512:C:/work_mari/XMC4800/UART/Libraries/XMCLib/inc\xmc_usic.h **** 
 513:C:/work_mari/XMC4800/UART/Libraries/XMCLib/inc\xmc_usic.h **** /**
 514:C:/work_mari/XMC4800/UART/Libraries/XMCLib/inc\xmc_usic.h ****  * USIC module structure
 515:C:/work_mari/XMC4800/UART/Libraries/XMCLib/inc\xmc_usic.h ****  */
 516:C:/work_mari/XMC4800/UART/Libraries/XMCLib/inc\xmc_usic.h **** typedef USIC_GLOBAL_TypeDef XMC_USIC_t;
 517:C:/work_mari/XMC4800/UART/Libraries/XMCLib/inc\xmc_usic.h **** 
 518:C:/work_mari/XMC4800/UART/Libraries/XMCLib/inc\xmc_usic.h **** /**
 519:C:/work_mari/XMC4800/UART/Libraries/XMCLib/inc\xmc_usic.h ****  * USIC channel structure.<br> The members of the structure are same as in the device header file,
 520:C:/work_mari/XMC4800/UART/Libraries/XMCLib/inc\xmc_usic.h ****  * except for some registers.
 521:C:/work_mari/XMC4800/UART/Libraries/XMCLib/inc\xmc_usic.h ****  * DX0CR, DX1CR, DX2CR, DX3CR, DX4CR and DX5CR are replaced with the array DXCR[6].
 522:C:/work_mari/XMC4800/UART/Libraries/XMCLib/inc\xmc_usic.h ****  * TBUF0 to TBUF31 are replaced with TBUF[32].
 523:C:/work_mari/XMC4800/UART/Libraries/XMCLib/inc\xmc_usic.h ****  * IN0 to IN31 are replaced with IN[32].
 524:C:/work_mari/XMC4800/UART/Libraries/XMCLib/inc\xmc_usic.h ****  */
 525:C:/work_mari/XMC4800/UART/Libraries/XMCLib/inc\xmc_usic.h **** typedef struct XMC_USIC_CH
 526:C:/work_mari/XMC4800/UART/Libraries/XMCLib/inc\xmc_usic.h **** {
 527:C:/work_mari/XMC4800/UART/Libraries/XMCLib/inc\xmc_usic.h ****   __I  uint32_t  RESERVED0;
 528:C:/work_mari/XMC4800/UART/Libraries/XMCLib/inc\xmc_usic.h ****   __I  uint32_t  CCFG;			/**< Channel configuration register*/
 529:C:/work_mari/XMC4800/UART/Libraries/XMCLib/inc\xmc_usic.h ****   __I  uint32_t  RESERVED1;
 530:C:/work_mari/XMC4800/UART/Libraries/XMCLib/inc\xmc_usic.h ****   __IO uint32_t  KSCFG;			/**< Kernel state configuration register*/
 531:C:/work_mari/XMC4800/UART/Libraries/XMCLib/inc\xmc_usic.h ****   __IO uint32_t  FDR;			/**< Fractional divider configuration register*/
 532:C:/work_mari/XMC4800/UART/Libraries/XMCLib/inc\xmc_usic.h ****   __IO uint32_t  BRG;			/**< Baud rate generator register*/
 533:C:/work_mari/XMC4800/UART/Libraries/XMCLib/inc\xmc_usic.h ****   __IO uint32_t  INPR;			/**< Interrupt node pointer register*/
 534:C:/work_mari/XMC4800/UART/Libraries/XMCLib/inc\xmc_usic.h ****   __IO uint32_t  DXCR[6];		/**< Input control registers DX0 to DX5.*/
 535:C:/work_mari/XMC4800/UART/Libraries/XMCLib/inc\xmc_usic.h ****   __IO uint32_t  SCTR;			/**< Shift control register*/
 536:C:/work_mari/XMC4800/UART/Libraries/XMCLib/inc\xmc_usic.h ****   __IO uint32_t  TCSR;
 537:C:/work_mari/XMC4800/UART/Libraries/XMCLib/inc\xmc_usic.h **** 
 538:C:/work_mari/XMC4800/UART/Libraries/XMCLib/inc\xmc_usic.h ****   union
 539:C:/work_mari/XMC4800/UART/Libraries/XMCLib/inc\xmc_usic.h ****   {
 540:C:/work_mari/XMC4800/UART/Libraries/XMCLib/inc\xmc_usic.h ****     __IO uint32_t  PCR_IICMode;	/**< I2C protocol configuration register*/
 541:C:/work_mari/XMC4800/UART/Libraries/XMCLib/inc\xmc_usic.h ****     __IO uint32_t  PCR_IISMode; /**< I2S protocol configuration register*/
 542:C:/work_mari/XMC4800/UART/Libraries/XMCLib/inc\xmc_usic.h ****     __IO uint32_t  PCR_SSCMode;	/**< SPI protocol configuration register*/
 543:C:/work_mari/XMC4800/UART/Libraries/XMCLib/inc\xmc_usic.h ****     __IO uint32_t  PCR;			/**< Protocol configuration register*/
 544:C:/work_mari/XMC4800/UART/Libraries/XMCLib/inc\xmc_usic.h ****     __IO uint32_t  PCR_ASCMode;	/**< UART protocol configuration register*/
 545:C:/work_mari/XMC4800/UART/Libraries/XMCLib/inc\xmc_usic.h ****   };
 546:C:/work_mari/XMC4800/UART/Libraries/XMCLib/inc\xmc_usic.h ****   __IO uint32_t  CCR;			/**< Channel control register*/
 547:C:/work_mari/XMC4800/UART/Libraries/XMCLib/inc\xmc_usic.h ****   __IO uint32_t  CMTR;			/**< Capture mode timer register*/
 548:C:/work_mari/XMC4800/UART/Libraries/XMCLib/inc\xmc_usic.h **** 
 549:C:/work_mari/XMC4800/UART/Libraries/XMCLib/inc\xmc_usic.h ****   union
 550:C:/work_mari/XMC4800/UART/Libraries/XMCLib/inc\xmc_usic.h ****   {
 551:C:/work_mari/XMC4800/UART/Libraries/XMCLib/inc\xmc_usic.h ****     __IO uint32_t  PSR_IICMode;	/**< I2C protocol status register*/
 552:C:/work_mari/XMC4800/UART/Libraries/XMCLib/inc\xmc_usic.h ****     __IO uint32_t  PSR_IISMode;	/**< I2S protocol status register*/
 553:C:/work_mari/XMC4800/UART/Libraries/XMCLib/inc\xmc_usic.h ****     __IO uint32_t  PSR_SSCMode;	/**< SPI protocol status register*/
 554:C:/work_mari/XMC4800/UART/Libraries/XMCLib/inc\xmc_usic.h ****     __IO uint32_t  PSR;			/**< Protocol status register*/
 555:C:/work_mari/XMC4800/UART/Libraries/XMCLib/inc\xmc_usic.h ****     __IO uint32_t  PSR_ASCMode;	/**< UART protocol status register*/
 556:C:/work_mari/XMC4800/UART/Libraries/XMCLib/inc\xmc_usic.h ****   };
 557:C:/work_mari/XMC4800/UART/Libraries/XMCLib/inc\xmc_usic.h ****   __O  uint32_t  PSCR;			/**< Protocol status clear register*/
 558:C:/work_mari/XMC4800/UART/Libraries/XMCLib/inc\xmc_usic.h ****   __I  uint32_t  RBUFSR;		/**< Receive buffer status register*/
 559:C:/work_mari/XMC4800/UART/Libraries/XMCLib/inc\xmc_usic.h ****   __I  uint32_t  RBUF;			/**< Receive buffer register*/
 560:C:/work_mari/XMC4800/UART/Libraries/XMCLib/inc\xmc_usic.h ****   __I  uint32_t  RBUFD;			/**< Debug mode receive buffer register*/
 561:C:/work_mari/XMC4800/UART/Libraries/XMCLib/inc\xmc_usic.h ****   __I  uint32_t  RBUF0;			/**< Receive buffer 0*/
 562:C:/work_mari/XMC4800/UART/Libraries/XMCLib/inc\xmc_usic.h ****   __I  uint32_t  RBUF1;			/**< Receive buffer 1*/
 563:C:/work_mari/XMC4800/UART/Libraries/XMCLib/inc\xmc_usic.h ****   __I  uint32_t  RBUF01SR;		/**< Receive buffer status register*/
 564:C:/work_mari/XMC4800/UART/Libraries/XMCLib/inc\xmc_usic.h ****   __O  uint32_t  FMR;			/**< Flag modification register*/
 565:C:/work_mari/XMC4800/UART/Libraries/XMCLib/inc\xmc_usic.h ****   __I  uint32_t  RESERVED2[5];
 566:C:/work_mari/XMC4800/UART/Libraries/XMCLib/inc\xmc_usic.h ****   __IO uint32_t  TBUF[32];		/**< Tranmsit buffer registers*/
 567:C:/work_mari/XMC4800/UART/Libraries/XMCLib/inc\xmc_usic.h ****   __IO uint32_t  BYP;			/**< FIFO bypass register*/
 568:C:/work_mari/XMC4800/UART/Libraries/XMCLib/inc\xmc_usic.h ****   __IO uint32_t  BYPCR;			/**< FIFO bypass control register*/
 569:C:/work_mari/XMC4800/UART/Libraries/XMCLib/inc\xmc_usic.h ****   __IO uint32_t  TBCTR;			/**< Transmit FIFO control register*/
 570:C:/work_mari/XMC4800/UART/Libraries/XMCLib/inc\xmc_usic.h ****   __IO uint32_t  RBCTR;			/**< Receive FIFO control register*/
 571:C:/work_mari/XMC4800/UART/Libraries/XMCLib/inc\xmc_usic.h ****   __I  uint32_t  TRBPTR;		/**< Transmit/recive buffer pointer register*/
 572:C:/work_mari/XMC4800/UART/Libraries/XMCLib/inc\xmc_usic.h ****   __IO uint32_t  TRBSR;			/**< Transmit/receive buffer status register*/
 573:C:/work_mari/XMC4800/UART/Libraries/XMCLib/inc\xmc_usic.h ****   __O  uint32_t  TRBSCR;		/**< Transmit/receive buffer status clear register*/
 574:C:/work_mari/XMC4800/UART/Libraries/XMCLib/inc\xmc_usic.h ****   __I  uint32_t  OUTR;			/**< Receive FIFO output register*/
 575:C:/work_mari/XMC4800/UART/Libraries/XMCLib/inc\xmc_usic.h ****   __I  uint32_t  OUTDR;			/**< Receive FIFO debug output register*/
 576:C:/work_mari/XMC4800/UART/Libraries/XMCLib/inc\xmc_usic.h ****   __I  uint32_t  RESERVED3[23];
 577:C:/work_mari/XMC4800/UART/Libraries/XMCLib/inc\xmc_usic.h ****   __O  uint32_t  IN[32];		/**< Transmit FIFO input register*/
 578:C:/work_mari/XMC4800/UART/Libraries/XMCLib/inc\xmc_usic.h **** } XMC_USIC_CH_t;
 579:C:/work_mari/XMC4800/UART/Libraries/XMCLib/inc\xmc_usic.h **** 
 580:C:/work_mari/XMC4800/UART/Libraries/XMCLib/inc\xmc_usic.h **** 
 581:C:/work_mari/XMC4800/UART/Libraries/XMCLib/inc\xmc_usic.h **** /*Anonymous structure/union guard end*/
 582:C:/work_mari/XMC4800/UART/Libraries/XMCLib/inc\xmc_usic.h **** #if defined(__CC_ARM)
 583:C:/work_mari/XMC4800/UART/Libraries/XMCLib/inc\xmc_usic.h **** #pragma pop
 584:C:/work_mari/XMC4800/UART/Libraries/XMCLib/inc\xmc_usic.h **** #elif defined(__TASKING__)
 585:C:/work_mari/XMC4800/UART/Libraries/XMCLib/inc\xmc_usic.h **** #pragma warning restore
 586:C:/work_mari/XMC4800/UART/Libraries/XMCLib/inc\xmc_usic.h **** #endif
 587:C:/work_mari/XMC4800/UART/Libraries/XMCLib/inc\xmc_usic.h **** 
 588:C:/work_mari/XMC4800/UART/Libraries/XMCLib/inc\xmc_usic.h **** /*******************************************************************************
 589:C:/work_mari/XMC4800/UART/Libraries/XMCLib/inc\xmc_usic.h ****  * API PROTOTYPES
 590:C:/work_mari/XMC4800/UART/Libraries/XMCLib/inc\xmc_usic.h ****  ******************************************************************************/
 591:C:/work_mari/XMC4800/UART/Libraries/XMCLib/inc\xmc_usic.h **** 
 592:C:/work_mari/XMC4800/UART/Libraries/XMCLib/inc\xmc_usic.h **** #ifdef __cplusplus
 593:C:/work_mari/XMC4800/UART/Libraries/XMCLib/inc\xmc_usic.h **** extern "C" {
 594:C:/work_mari/XMC4800/UART/Libraries/XMCLib/inc\xmc_usic.h **** #endif
 595:C:/work_mari/XMC4800/UART/Libraries/XMCLib/inc\xmc_usic.h **** 
 596:C:/work_mari/XMC4800/UART/Libraries/XMCLib/inc\xmc_usic.h **** __STATIC_INLINE bool XMC_USIC_IsModuleValid(const XMC_USIC_t *const module)
 597:C:/work_mari/XMC4800/UART/Libraries/XMCLib/inc\xmc_usic.h **** {
 598:C:/work_mari/XMC4800/UART/Libraries/XMCLib/inc\xmc_usic.h ****   bool tmp;
 599:C:/work_mari/XMC4800/UART/Libraries/XMCLib/inc\xmc_usic.h **** 
 600:C:/work_mari/XMC4800/UART/Libraries/XMCLib/inc\xmc_usic.h ****   tmp = (module == XMC_USIC0);
 601:C:/work_mari/XMC4800/UART/Libraries/XMCLib/inc\xmc_usic.h **** #if defined(XMC_USIC1)
 602:C:/work_mari/XMC4800/UART/Libraries/XMCLib/inc\xmc_usic.h ****   tmp = tmp || (module == XMC_USIC1);
 603:C:/work_mari/XMC4800/UART/Libraries/XMCLib/inc\xmc_usic.h **** #endif
 604:C:/work_mari/XMC4800/UART/Libraries/XMCLib/inc\xmc_usic.h **** #if defined(XMC_USIC2)
 605:C:/work_mari/XMC4800/UART/Libraries/XMCLib/inc\xmc_usic.h ****   tmp = tmp || (module == XMC_USIC2);
 606:C:/work_mari/XMC4800/UART/Libraries/XMCLib/inc\xmc_usic.h **** #endif
 607:C:/work_mari/XMC4800/UART/Libraries/XMCLib/inc\xmc_usic.h **** 
 608:C:/work_mari/XMC4800/UART/Libraries/XMCLib/inc\xmc_usic.h ****   return tmp;
 609:C:/work_mari/XMC4800/UART/Libraries/XMCLib/inc\xmc_usic.h **** }
 610:C:/work_mari/XMC4800/UART/Libraries/XMCLib/inc\xmc_usic.h **** 
 611:C:/work_mari/XMC4800/UART/Libraries/XMCLib/inc\xmc_usic.h **** __STATIC_INLINE bool XMC_USIC_IsChannelValid(const XMC_USIC_CH_t *const channel)
 612:C:/work_mari/XMC4800/UART/Libraries/XMCLib/inc\xmc_usic.h **** {
 613:C:/work_mari/XMC4800/UART/Libraries/XMCLib/inc\xmc_usic.h ****   bool tmp;
 614:C:/work_mari/XMC4800/UART/Libraries/XMCLib/inc\xmc_usic.h **** 
 615:C:/work_mari/XMC4800/UART/Libraries/XMCLib/inc\xmc_usic.h ****   tmp = ((channel == XMC_USIC0_CH0) || (channel == XMC_USIC0_CH1));
 616:C:/work_mari/XMC4800/UART/Libraries/XMCLib/inc\xmc_usic.h **** #if defined(XMC_USIC1)
 617:C:/work_mari/XMC4800/UART/Libraries/XMCLib/inc\xmc_usic.h ****   tmp = tmp || ((channel == XMC_USIC1_CH0) || (channel == XMC_USIC1_CH1));
 618:C:/work_mari/XMC4800/UART/Libraries/XMCLib/inc\xmc_usic.h **** #endif
 619:C:/work_mari/XMC4800/UART/Libraries/XMCLib/inc\xmc_usic.h **** #if defined(XMC_USIC2)
 620:C:/work_mari/XMC4800/UART/Libraries/XMCLib/inc\xmc_usic.h ****   tmp = tmp || ((channel == XMC_USIC2_CH0) || (channel == XMC_USIC2_CH1));
 621:C:/work_mari/XMC4800/UART/Libraries/XMCLib/inc\xmc_usic.h **** #endif
 622:C:/work_mari/XMC4800/UART/Libraries/XMCLib/inc\xmc_usic.h **** 
 623:C:/work_mari/XMC4800/UART/Libraries/XMCLib/inc\xmc_usic.h ****   return tmp;
 624:C:/work_mari/XMC4800/UART/Libraries/XMCLib/inc\xmc_usic.h **** }
 625:C:/work_mari/XMC4800/UART/Libraries/XMCLib/inc\xmc_usic.h **** 
 626:C:/work_mari/XMC4800/UART/Libraries/XMCLib/inc\xmc_usic.h **** /* Common APIs */
 627:C:/work_mari/XMC4800/UART/Libraries/XMCLib/inc\xmc_usic.h **** 
 628:C:/work_mari/XMC4800/UART/Libraries/XMCLib/inc\xmc_usic.h **** /**
 629:C:/work_mari/XMC4800/UART/Libraries/XMCLib/inc\xmc_usic.h ****  * @param  usic Pointer to USIC module handler of type @ref XMC_USIC_t.\n
 630:C:/work_mari/XMC4800/UART/Libraries/XMCLib/inc\xmc_usic.h ****  * 				\b Range: @ref XMC_USIC0 to @ref XMC_USIC2 based on device support.
 631:C:/work_mari/XMC4800/UART/Libraries/XMCLib/inc\xmc_usic.h ****  * @return None
 632:C:/work_mari/XMC4800/UART/Libraries/XMCLib/inc\xmc_usic.h ****  *
 633:C:/work_mari/XMC4800/UART/Libraries/XMCLib/inc\xmc_usic.h ****  * \par<b>Description</b><br>
 634:C:/work_mari/XMC4800/UART/Libraries/XMCLib/inc\xmc_usic.h ****  * Enables the USIC module.\n\n
 635:C:/work_mari/XMC4800/UART/Libraries/XMCLib/inc\xmc_usic.h ****  * Enables the clock for the USIC module by following the
 636:C:/work_mari/XMC4800/UART/Libraries/XMCLib/inc\xmc_usic.h ****  * clock enabling sequence for the selected device.
 637:C:/work_mari/XMC4800/UART/Libraries/XMCLib/inc\xmc_usic.h ****  *
 638:C:/work_mari/XMC4800/UART/Libraries/XMCLib/inc\xmc_usic.h ****  * \par<b>Related APIs:</b><BR>
 639:C:/work_mari/XMC4800/UART/Libraries/XMCLib/inc\xmc_usic.h ****  * XMC_USIC_CH_Enable(), XMC_USIC_Disable() \n\n\n
 640:C:/work_mari/XMC4800/UART/Libraries/XMCLib/inc\xmc_usic.h ****  */
 641:C:/work_mari/XMC4800/UART/Libraries/XMCLib/inc\xmc_usic.h **** void XMC_USIC_Enable(XMC_USIC_t *const usic);
 642:C:/work_mari/XMC4800/UART/Libraries/XMCLib/inc\xmc_usic.h **** /**
 643:C:/work_mari/XMC4800/UART/Libraries/XMCLib/inc\xmc_usic.h ****  * @param  usic Pointer to USIC module handler of type @ref XMC_USIC_t.\n
 644:C:/work_mari/XMC4800/UART/Libraries/XMCLib/inc\xmc_usic.h ****  * 				\b Range: @ref XMC_USIC0 to @ref XMC_USIC2 based on device support.
 645:C:/work_mari/XMC4800/UART/Libraries/XMCLib/inc\xmc_usic.h ****  * @return None
 646:C:/work_mari/XMC4800/UART/Libraries/XMCLib/inc\xmc_usic.h ****  *
 647:C:/work_mari/XMC4800/UART/Libraries/XMCLib/inc\xmc_usic.h ****  * \par<b>Description</b><br>
 648:C:/work_mari/XMC4800/UART/Libraries/XMCLib/inc\xmc_usic.h ****  * Disables the USIC module.\n\n
 649:C:/work_mari/XMC4800/UART/Libraries/XMCLib/inc\xmc_usic.h ****  * Disables the clock for the USIC module by following the clock
 650:C:/work_mari/XMC4800/UART/Libraries/XMCLib/inc\xmc_usic.h ****  * disabling sequence for the selected device.
 651:C:/work_mari/XMC4800/UART/Libraries/XMCLib/inc\xmc_usic.h ****  *
 652:C:/work_mari/XMC4800/UART/Libraries/XMCLib/inc\xmc_usic.h ****  * \par<b>Related APIs:</b><BR>
 653:C:/work_mari/XMC4800/UART/Libraries/XMCLib/inc\xmc_usic.h ****  * XMC_USIC_CH_Disable(), XMC_USIC_Enable() \n\n\n
 654:C:/work_mari/XMC4800/UART/Libraries/XMCLib/inc\xmc_usic.h ****  */
 655:C:/work_mari/XMC4800/UART/Libraries/XMCLib/inc\xmc_usic.h **** void XMC_USIC_Disable(XMC_USIC_t *const usic);
 656:C:/work_mari/XMC4800/UART/Libraries/XMCLib/inc\xmc_usic.h **** /**
 657:C:/work_mari/XMC4800/UART/Libraries/XMCLib/inc\xmc_usic.h ****  * @param  channel Pointer to USIC channel handler of type @ref XMC_USIC_CH_t \n
 658:C:/work_mari/XMC4800/UART/Libraries/XMCLib/inc\xmc_usic.h ****  * 				   \b Range: @ref XMC_USIC0_CH0, @ref XMC_USIC0_CH1 to @ref XMC_USIC2_CH1 based on device su
 659:C:/work_mari/XMC4800/UART/Libraries/XMCLib/inc\xmc_usic.h ****  * @return None
 660:C:/work_mari/XMC4800/UART/Libraries/XMCLib/inc\xmc_usic.h ****  *
 661:C:/work_mari/XMC4800/UART/Libraries/XMCLib/inc\xmc_usic.h ****  * \par<b>Description</b><br>
 662:C:/work_mari/XMC4800/UART/Libraries/XMCLib/inc\xmc_usic.h ****  * Enables the USIC channel. \n\n
 663:C:/work_mari/XMC4800/UART/Libraries/XMCLib/inc\xmc_usic.h ****  * USIC channel is enabled by setting the module enable bit in KSCFG register bitfield MODEN.
 664:C:/work_mari/XMC4800/UART/Libraries/XMCLib/inc\xmc_usic.h ****  * On enabling, the channel is set to idle mode.
 665:C:/work_mari/XMC4800/UART/Libraries/XMCLib/inc\xmc_usic.h ****  *
 666:C:/work_mari/XMC4800/UART/Libraries/XMCLib/inc\xmc_usic.h ****  * \par<b>Related APIs:</b><BR>
 667:C:/work_mari/XMC4800/UART/Libraries/XMCLib/inc\xmc_usic.h ****  * XMC_USIC_CH_Disable(), XMC_USIC_Enable() \n\n\n
 668:C:/work_mari/XMC4800/UART/Libraries/XMCLib/inc\xmc_usic.h ****  */
 669:C:/work_mari/XMC4800/UART/Libraries/XMCLib/inc\xmc_usic.h **** void XMC_USIC_CH_Enable(XMC_USIC_CH_t *const channel);
 670:C:/work_mari/XMC4800/UART/Libraries/XMCLib/inc\xmc_usic.h **** /**
 671:C:/work_mari/XMC4800/UART/Libraries/XMCLib/inc\xmc_usic.h ****  * @param  channel Pointer to USIC channel handler of type @ref XMC_USIC_CH_t \n
 672:C:/work_mari/XMC4800/UART/Libraries/XMCLib/inc\xmc_usic.h ****  * 				   \b Range: @ref XMC_USIC0_CH0, @ref XMC_USIC0_CH1 to @ref XMC_USIC2_CH1 based on device su
 673:C:/work_mari/XMC4800/UART/Libraries/XMCLib/inc\xmc_usic.h ****  * @return None
 674:C:/work_mari/XMC4800/UART/Libraries/XMCLib/inc\xmc_usic.h ****  *
 675:C:/work_mari/XMC4800/UART/Libraries/XMCLib/inc\xmc_usic.h ****  * \par<b>Description</b><br>
 676:C:/work_mari/XMC4800/UART/Libraries/XMCLib/inc\xmc_usic.h ****  * Disables the USIC channel.\n\n
 677:C:/work_mari/XMC4800/UART/Libraries/XMCLib/inc\xmc_usic.h ****  * USIC channel is disabled by setting the module enable bit(MDEN) to 0 in the register KSCFG.
 678:C:/work_mari/XMC4800/UART/Libraries/XMCLib/inc\xmc_usic.h ****  *
 679:C:/work_mari/XMC4800/UART/Libraries/XMCLib/inc\xmc_usic.h ****  * \par<b>Related APIs:</b><BR>
 680:C:/work_mari/XMC4800/UART/Libraries/XMCLib/inc\xmc_usic.h ****  * XMC_USIC_CH_Enable(), XMC_USIC_Disable() \n\n\n
 681:C:/work_mari/XMC4800/UART/Libraries/XMCLib/inc\xmc_usic.h ****  */
 682:C:/work_mari/XMC4800/UART/Libraries/XMCLib/inc\xmc_usic.h **** void XMC_USIC_CH_Disable(XMC_USIC_CH_t *const channel);
 683:C:/work_mari/XMC4800/UART/Libraries/XMCLib/inc\xmc_usic.h **** 
 684:C:/work_mari/XMC4800/UART/Libraries/XMCLib/inc\xmc_usic.h **** /**
 685:C:/work_mari/XMC4800/UART/Libraries/XMCLib/inc\xmc_usic.h ****  * @param  channel Pointer to USIC channel handler of type @ref XMC_USIC_CH_t \n
 686:C:/work_mari/XMC4800/UART/Libraries/XMCLib/inc\xmc_usic.h ****  * 				   \b Range: @ref XMC_USIC0_CH0, @ref XMC_USIC0_CH1 to @ref XMC_USIC2_CH1 based on device su
 687:C:/work_mari/XMC4800/UART/Libraries/XMCLib/inc\xmc_usic.h ****  * @param  rate Desired baudrate. \b Range: minimum value = 100, maximum value depends on the perip
 688:C:/work_mari/XMC4800/UART/Libraries/XMCLib/inc\xmc_usic.h ****  * 				and \a oversampling. Maximum baudrate can be derived using the formula: (fperiph * 1023)/(10
 689:C:/work_mari/XMC4800/UART/Libraries/XMCLib/inc\xmc_usic.h ****  * @param  oversampling Required oversampling. The value indicates the number of time quanta for on
 690:C:/work_mari/XMC4800/UART/Libraries/XMCLib/inc\xmc_usic.h ****  * 						This can be related to the number of samples for each logic state of the data signal. \n
 691:C:/work_mari/XMC4800/UART/Libraries/XMCLib/inc\xmc_usic.h ****  * 						\b Range: 1 to 32. Value should be chosen based on the protocol used.
 692:C:/work_mari/XMC4800/UART/Libraries/XMCLib/inc\xmc_usic.h ****  * @return Status indicating the baudrate configuration.\n
 693:C:/work_mari/XMC4800/UART/Libraries/XMCLib/inc\xmc_usic.h ****  * 			\b Range: @ref XMC_USIC_CH_STATUS_OK if baudrate is successfully configured,
 694:C:/work_mari/XMC4800/UART/Libraries/XMCLib/inc\xmc_usic.h ****  * 					  @ref XMC_USIC_CH_STATUS_ERROR if desired baudrate or oversampling is invalid.
 695:C:/work_mari/XMC4800/UART/Libraries/XMCLib/inc\xmc_usic.h ****  *
 696:C:/work_mari/XMC4800/UART/Libraries/XMCLib/inc\xmc_usic.h ****  * \par<b>Description</b><br>
 697:C:/work_mari/XMC4800/UART/Libraries/XMCLib/inc\xmc_usic.h ****  * Configures the baudrate of the USIC channel. \n\n
 698:C:/work_mari/XMC4800/UART/Libraries/XMCLib/inc\xmc_usic.h ****  * Baudrate is configured by considering the peripheral frequency and the desired baudrate.
 699:C:/work_mari/XMC4800/UART/Libraries/XMCLib/inc\xmc_usic.h ****  * Optimum values of FDR->STEP and BRG->PDIV are calulated and used for generating the desired
 700:C:/work_mari/XMC4800/UART/Libraries/XMCLib/inc\xmc_usic.h ****  * baudrate.
 701:C:/work_mari/XMC4800/UART/Libraries/XMCLib/inc\xmc_usic.h ****  *
 702:C:/work_mari/XMC4800/UART/Libraries/XMCLib/inc\xmc_usic.h ****  * \par<b>Related APIs:</b><BR>
 703:C:/work_mari/XMC4800/UART/Libraries/XMCLib/inc\xmc_usic.h ****  * XMC_USIC_CH_SetStartTransmisionMode(), XMC_USIC_CH_SetInputSource() \n\n\n
 704:C:/work_mari/XMC4800/UART/Libraries/XMCLib/inc\xmc_usic.h ****  */
 705:C:/work_mari/XMC4800/UART/Libraries/XMCLib/inc\xmc_usic.h **** XMC_USIC_CH_STATUS_t XMC_USIC_CH_SetBaudrate(XMC_USIC_CH_t *const channel, uint32_t rate, uint32_t 
 706:C:/work_mari/XMC4800/UART/Libraries/XMCLib/inc\xmc_usic.h **** 
 707:C:/work_mari/XMC4800/UART/Libraries/XMCLib/inc\xmc_usic.h **** /**
 708:C:/work_mari/XMC4800/UART/Libraries/XMCLib/inc\xmc_usic.h ****  * @param  channel Pointer to USIC channel handler of type @ref XMC_USIC_CH_t \n
 709:C:/work_mari/XMC4800/UART/Libraries/XMCLib/inc\xmc_usic.h ****  *           \b Range: @ref XMC_USIC0_CH0, @ref XMC_USIC0_CH1 to @ref XMC_USIC2_CH1 based on device
 710:C:/work_mari/XMC4800/UART/Libraries/XMCLib/inc\xmc_usic.h ****  * @param  rate Desired baudrate. Only integer dividers of peripheral clock are achievable
 711:C:/work_mari/XMC4800/UART/Libraries/XMCLib/inc\xmc_usic.h ****  * @param  oversampling Required oversampling. The value indicates the number of time quanta for on
 712:C:/work_mari/XMC4800/UART/Libraries/XMCLib/inc\xmc_usic.h ****  *            This can be related to the number of samples for each logic state of the data signal.
 713:C:/work_mari/XMC4800/UART/Libraries/XMCLib/inc\xmc_usic.h ****  *            \b Range: 1 to 32. Value should be chosen based on the protocol used.
 714:C:/work_mari/XMC4800/UART/Libraries/XMCLib/inc\xmc_usic.h ****  * @return Status indicating the baudrate configuration.\n
 715:C:/work_mari/XMC4800/UART/Libraries/XMCLib/inc\xmc_usic.h ****  *      \b Range: @ref XMC_USIC_CH_STATUS_OK if baudrate is successfully configured,
 716:C:/work_mari/XMC4800/UART/Libraries/XMCLib/inc\xmc_usic.h ****  *            @ref XMC_USIC_CH_STATUS_ERROR if desired baudrate or oversampling is invalid.
 717:C:/work_mari/XMC4800/UART/Libraries/XMCLib/inc\xmc_usic.h ****  *
 718:C:/work_mari/XMC4800/UART/Libraries/XMCLib/inc\xmc_usic.h ****  * \par<b>Description</b><br>
 719:C:/work_mari/XMC4800/UART/Libraries/XMCLib/inc\xmc_usic.h ****  * Configures the baudrate of the USIC channel using the integer divider which restrics the achieva
 720:C:/work_mari/XMC4800/UART/Libraries/XMCLib/inc\xmc_usic.h ****  * Baudrate is configured by considering the peripheral frequency and the desired baudrate.
 721:C:/work_mari/XMC4800/UART/Libraries/XMCLib/inc\xmc_usic.h ****  * Optimum values of FDR->STEP and BRG->PDIV are calulated and used for generating the desired
 722:C:/work_mari/XMC4800/UART/Libraries/XMCLib/inc\xmc_usic.h ****  * baudrate.
 723:C:/work_mari/XMC4800/UART/Libraries/XMCLib/inc\xmc_usic.h ****  *
 724:C:/work_mari/XMC4800/UART/Libraries/XMCLib/inc\xmc_usic.h ****  * \par<b>Related APIs:</b><BR>
 725:C:/work_mari/XMC4800/UART/Libraries/XMCLib/inc\xmc_usic.h ****  * XMC_USIC_CH_SetStartTransmisionMode(), XMC_USIC_CH_SetInputSource() \n\n\n
 726:C:/work_mari/XMC4800/UART/Libraries/XMCLib/inc\xmc_usic.h ****  */
 727:C:/work_mari/XMC4800/UART/Libraries/XMCLib/inc\xmc_usic.h **** XMC_USIC_CH_STATUS_t XMC_USIC_CH_SetBaudrateEx(XMC_USIC_CH_t *const channel, int32_t rate, int32_t 
 728:C:/work_mari/XMC4800/UART/Libraries/XMCLib/inc\xmc_usic.h **** 
 729:C:/work_mari/XMC4800/UART/Libraries/XMCLib/inc\xmc_usic.h **** /**
 730:C:/work_mari/XMC4800/UART/Libraries/XMCLib/inc\xmc_usic.h ****  * @param  channel Pointer to USIC channel handler of type @ref XMC_USIC_CH_t \n
 731:C:/work_mari/XMC4800/UART/Libraries/XMCLib/inc\xmc_usic.h ****  *           \b Range: @ref XMC_USIC0_CH0, @ref XMC_USIC0_CH1 to @ref XMC_USIC2_CH1 based on device
 732:C:/work_mari/XMC4800/UART/Libraries/XMCLib/inc\xmc_usic.h ****  * @param  clksel Baudrate generator clock source.
 733:C:/work_mari/XMC4800/UART/Libraries/XMCLib/inc\xmc_usic.h ****  * @param  pppen Enable 2:1 Divider for fPPP.
 734:C:/work_mari/XMC4800/UART/Libraries/XMCLib/inc\xmc_usic.h ****  * @param  pdiv Divider Factor to generate fPDIV = fPPP / (pDIV + 1)
 735:C:/work_mari/XMC4800/UART/Libraries/XMCLib/inc\xmc_usic.h ****  * @param  ctqsel Input selection for CTQ.
 736:C:/work_mari/XMC4800/UART/Libraries/XMCLib/inc\xmc_usic.h ****  * @param  pctq Pre-Divider for Time Quanta Counter. fCTQIN / (PCQT + 1)
 737:C:/work_mari/XMC4800/UART/Libraries/XMCLib/inc\xmc_usic.h ****  * @param  dctq Denominator for Time Quanta Counter. fTQ / (DCTQ + 1)
 738:C:/work_mari/XMC4800/UART/Libraries/XMCLib/inc\xmc_usic.h ****  * @return None
 739:C:/work_mari/XMC4800/UART/Libraries/XMCLib/inc\xmc_usic.h ****  *
 740:C:/work_mari/XMC4800/UART/Libraries/XMCLib/inc\xmc_usic.h ****  * \par<b>Description</b><br>
 741:C:/work_mari/XMC4800/UART/Libraries/XMCLib/inc\xmc_usic.h ****  * Configures the baudrate generator of the USIC channel.
 742:C:/work_mari/XMC4800/UART/Libraries/XMCLib/inc\xmc_usic.h ****  *
 743:C:/work_mari/XMC4800/UART/Libraries/XMCLib/inc\xmc_usic.h ****  * \par<b>Related APIs:</b><BR>
 744:C:/work_mari/XMC4800/UART/Libraries/XMCLib/inc\xmc_usic.h ****  * XMC_USIC_CH_SetFractionalDivider() \n\n\n
 745:C:/work_mari/XMC4800/UART/Libraries/XMCLib/inc\xmc_usic.h ****  */
 746:C:/work_mari/XMC4800/UART/Libraries/XMCLib/inc\xmc_usic.h **** void XMC_USIC_CH_SetBaudrateDivider(XMC_USIC_CH_t *const channel, 
 747:C:/work_mari/XMC4800/UART/Libraries/XMCLib/inc\xmc_usic.h ****                                     XMC_USIC_CH_BRG_CLOCK_SOURCE_t clksel,
 748:C:/work_mari/XMC4800/UART/Libraries/XMCLib/inc\xmc_usic.h ****                                     bool pppen,
 749:C:/work_mari/XMC4800/UART/Libraries/XMCLib/inc\xmc_usic.h ****                                     uint32_t pdiv,
 750:C:/work_mari/XMC4800/UART/Libraries/XMCLib/inc\xmc_usic.h ****                                     XMC_USIC_CH_BRG_CTQSEL_t ctqsel,
 751:C:/work_mari/XMC4800/UART/Libraries/XMCLib/inc\xmc_usic.h ****                                     uint32_t pctq,
 752:C:/work_mari/XMC4800/UART/Libraries/XMCLib/inc\xmc_usic.h ****                                     uint32_t dctq);
 753:C:/work_mari/XMC4800/UART/Libraries/XMCLib/inc\xmc_usic.h **** 
 754:C:/work_mari/XMC4800/UART/Libraries/XMCLib/inc\xmc_usic.h **** /**
 755:C:/work_mari/XMC4800/UART/Libraries/XMCLib/inc\xmc_usic.h ****  * @param  channel Pointer to USIC channel handler of type @ref XMC_USIC_CH_t \n
 756:C:/work_mari/XMC4800/UART/Libraries/XMCLib/inc\xmc_usic.h ****  *           \b Range: @ref XMC_USIC0_CH0, @ref XMC_USIC0_CH1 to @ref XMC_USIC2_CH1 based on device
 757:C:/work_mari/XMC4800/UART/Libraries/XMCLib/inc\xmc_usic.h ****  * @return baudrate currently used by USIC channel for .\n
 758:C:/work_mari/XMC4800/UART/Libraries/XMCLib/inc\xmc_usic.h ****  *
 759:C:/work_mari/XMC4800/UART/Libraries/XMCLib/inc\xmc_usic.h ****  * \par<b>Description</b><br>
 760:C:/work_mari/XMC4800/UART/Libraries/XMCLib/inc\xmc_usic.h ****  * Calculates the current used baudrate (fCTQIN) of a USIC channel. \n\n
 761:C:/work_mari/XMC4800/UART/Libraries/XMCLib/inc\xmc_usic.h ****  * @image html ../images/usic_brg.png
 762:C:/work_mari/XMC4800/UART/Libraries/XMCLib/inc\xmc_usic.h ****  * @image latex ../images/usic_brg.png
 763:C:/work_mari/XMC4800/UART/Libraries/XMCLib/inc\xmc_usic.h ****  *
 764:C:/work_mari/XMC4800/UART/Libraries/XMCLib/inc\xmc_usic.h ****  * \par<b>Related APIs:</b><BR>
 765:C:/work_mari/XMC4800/UART/Libraries/XMCLib/inc\xmc_usic.h ****  * XMC_USIC_CH_SetBaudrateMode(), XMC_USIC_CH_SetBaudrate(), XMC_USIC_CH_SetBaudrateEx() \n\n\n
 766:C:/work_mari/XMC4800/UART/Libraries/XMCLib/inc\xmc_usic.h ****  */
 767:C:/work_mari/XMC4800/UART/Libraries/XMCLib/inc\xmc_usic.h **** uint32_t XMC_USIC_CH_GetBaudrate(XMC_USIC_CH_t *const channel);
 768:C:/work_mari/XMC4800/UART/Libraries/XMCLib/inc\xmc_usic.h **** 
 769:C:/work_mari/XMC4800/UART/Libraries/XMCLib/inc\xmc_usic.h **** /**
 770:C:/work_mari/XMC4800/UART/Libraries/XMCLib/inc\xmc_usic.h ****  * @param  channel Pointer to USIC channel handler of type @ref XMC_USIC_CH_t \n
 771:C:/work_mari/XMC4800/UART/Libraries/XMCLib/inc\xmc_usic.h ****  *           \b Range: @ref XMC_USIC0_CH0, @ref XMC_USIC0_CH1 to @ref XMC_USIC2_CH1 based on device
 772:C:/work_mari/XMC4800/UART/Libraries/XMCLib/inc\xmc_usic.h ****  * @return baudrate currently used by USIC channel.\n
 773:C:/work_mari/XMC4800/UART/Libraries/XMCLib/inc\xmc_usic.h ****  *
 774:C:/work_mari/XMC4800/UART/Libraries/XMCLib/inc\xmc_usic.h ****  * \par<b>Description</b><br>
 775:C:/work_mari/XMC4800/UART/Libraries/XMCLib/inc\xmc_usic.h ****  * Calculates the current used SCLK frequency of a USIC channel. \n\n
 776:C:/work_mari/XMC4800/UART/Libraries/XMCLib/inc\xmc_usic.h ****  * @image html ../images/usic_brg.png
 777:C:/work_mari/XMC4800/UART/Libraries/XMCLib/inc\xmc_usic.h ****  * @image latex ../images/usic_brg.png
 778:C:/work_mari/XMC4800/UART/Libraries/XMCLib/inc\xmc_usic.h ****  *
 779:C:/work_mari/XMC4800/UART/Libraries/XMCLib/inc\xmc_usic.h ****  * \par<b>Related APIs:</b><BR>
 780:C:/work_mari/XMC4800/UART/Libraries/XMCLib/inc\xmc_usic.h ****  * XMC_USIC_CH_SetBaudrateMode(), XMC_USIC_CH_SetBaudrate(), XMC_USIC_CH_SetBaudrateEx() \n\n\n
 781:C:/work_mari/XMC4800/UART/Libraries/XMCLib/inc\xmc_usic.h ****  */
 782:C:/work_mari/XMC4800/UART/Libraries/XMCLib/inc\xmc_usic.h **** uint32_t XMC_USIC_CH_GetSCLKFrequency(XMC_USIC_CH_t *const channel);
 783:C:/work_mari/XMC4800/UART/Libraries/XMCLib/inc\xmc_usic.h **** 
 784:C:/work_mari/XMC4800/UART/Libraries/XMCLib/inc\xmc_usic.h **** /**
 785:C:/work_mari/XMC4800/UART/Libraries/XMCLib/inc\xmc_usic.h ****  * @param  channel Pointer to USIC channel handler of type @ref XMC_USIC_CH_t \n
 786:C:/work_mari/XMC4800/UART/Libraries/XMCLib/inc\xmc_usic.h ****  *           \b Range: @ref XMC_USIC0_CH0, @ref XMC_USIC0_CH1 to @ref XMC_USIC2_CH1 based on device
 787:C:/work_mari/XMC4800/UART/Libraries/XMCLib/inc\xmc_usic.h ****  * @return baudrate currently used by USIC channel.\n
 788:C:/work_mari/XMC4800/UART/Libraries/XMCLib/inc\xmc_usic.h ****  *
 789:C:/work_mari/XMC4800/UART/Libraries/XMCLib/inc\xmc_usic.h ****  * \par<b>Description</b><br>
 790:C:/work_mari/XMC4800/UART/Libraries/XMCLib/inc\xmc_usic.h ****  * Calculates the current used MCLK frequency of a USIC channel. \n\n
 791:C:/work_mari/XMC4800/UART/Libraries/XMCLib/inc\xmc_usic.h ****  * @image html ../images/usic_brg.png
 792:C:/work_mari/XMC4800/UART/Libraries/XMCLib/inc\xmc_usic.h ****  * @image latex ../images/usic_brg.png
 793:C:/work_mari/XMC4800/UART/Libraries/XMCLib/inc\xmc_usic.h ****  *
 794:C:/work_mari/XMC4800/UART/Libraries/XMCLib/inc\xmc_usic.h ****  * \par<b>Related APIs:</b><BR>
 795:C:/work_mari/XMC4800/UART/Libraries/XMCLib/inc\xmc_usic.h ****  * XMC_USIC_CH_SetBaudrateMode(), XMC_USIC_CH_SetBaudrate(), XMC_USIC_CH_SetBaudrateEx() \n\n\n
 796:C:/work_mari/XMC4800/UART/Libraries/XMCLib/inc\xmc_usic.h ****  */
 797:C:/work_mari/XMC4800/UART/Libraries/XMCLib/inc\xmc_usic.h **** uint32_t XMC_USIC_CH_GetMCLKFrequency(XMC_USIC_CH_t *const channel);
 798:C:/work_mari/XMC4800/UART/Libraries/XMCLib/inc\xmc_usic.h **** 
 799:C:/work_mari/XMC4800/UART/Libraries/XMCLib/inc\xmc_usic.h **** /**
 800:C:/work_mari/XMC4800/UART/Libraries/XMCLib/inc\xmc_usic.h ****  * @param  channel Pointer to USIC channel handler of type @ref XMC_USIC_CH_t \n
 801:C:/work_mari/XMC4800/UART/Libraries/XMCLib/inc\xmc_usic.h ****  * 				   \b Range: @ref XMC_USIC0_CH0, @ref XMC_USIC0_CH1 to @ref XMC_USIC2_CH1 based on device su
 802:C:/work_mari/XMC4800/UART/Libraries/XMCLib/inc\xmc_usic.h ****  * @param  pdiv Desired divider for the external frequency input. \b Range: minimum value = 1, maxi
 803:C:/work_mari/XMC4800/UART/Libraries/XMCLib/inc\xmc_usic.h ****  * @param  oversampling Required oversampling. The value indicates the number of time quanta for on
 804:C:/work_mari/XMC4800/UART/Libraries/XMCLib/inc\xmc_usic.h ****  * 						This can be related to the number of samples for each logic state of the data signal. \n
 805:C:/work_mari/XMC4800/UART/Libraries/XMCLib/inc\xmc_usic.h ****  * 						\b Range: 1 to 32. Value should be chosen based on the protocol used.
 806:C:/work_mari/XMC4800/UART/Libraries/XMCLib/inc\xmc_usic.h ****  * @param  combination_mode Selects which edge of the synchronized(and optionally filtered) signal 
 807:C:/work_mari/XMC4800/UART/Libraries/XMCLib/inc\xmc_usic.h ****  *                          output DXnT of the input stage.
 808:C:/work_mari/XMC4800/UART/Libraries/XMCLib/inc\xmc_usic.h ****  *
 809:C:/work_mari/XMC4800/UART/Libraries/XMCLib/inc\xmc_usic.h ****  * @return None
 810:C:/work_mari/XMC4800/UART/Libraries/XMCLib/inc\xmc_usic.h ****  *
 811:C:/work_mari/XMC4800/UART/Libraries/XMCLib/inc\xmc_usic.h ****  * \par<b>Description</b><br>
 812:C:/work_mari/XMC4800/UART/Libraries/XMCLib/inc\xmc_usic.h ****  * Enables the external frequency input for the Baudrate Generator and configures the divider, over
 813:C:/work_mari/XMC4800/UART/Libraries/XMCLib/inc\xmc_usic.h ****  * the combination mode of the USIC channel. \n\n
 814:C:/work_mari/XMC4800/UART/Libraries/XMCLib/inc\xmc_usic.h ****  *
 815:C:/work_mari/XMC4800/UART/Libraries/XMCLib/inc\xmc_usic.h ****  * \par<b>Related APIs:</b><BR>
 816:C:/work_mari/XMC4800/UART/Libraries/XMCLib/inc\xmc_usic.h ****  * XMC_USIC_CH_SetBRGInputClockSource(), XMC_USIC_CH_SetInputTriggerCombinationMode() \n\n\n
 817:C:/work_mari/XMC4800/UART/Libraries/XMCLib/inc\xmc_usic.h ****  */
 818:C:/work_mari/XMC4800/UART/Libraries/XMCLib/inc\xmc_usic.h **** void XMC_USIC_CH_ConfigExternalInputSignalToBRG(XMC_USIC_CH_t *const channel,
 819:C:/work_mari/XMC4800/UART/Libraries/XMCLib/inc\xmc_usic.h ****     const uint16_t pdiv,
 820:C:/work_mari/XMC4800/UART/Libraries/XMCLib/inc\xmc_usic.h ****     const uint32_t oversampling,
 821:C:/work_mari/XMC4800/UART/Libraries/XMCLib/inc\xmc_usic.h ****     const XMC_USIC_CH_INPUT_COMBINATION_MODE_t combination_mode);
 822:C:/work_mari/XMC4800/UART/Libraries/XMCLib/inc\xmc_usic.h **** 
 823:C:/work_mari/XMC4800/UART/Libraries/XMCLib/inc\xmc_usic.h **** /**
 824:C:/work_mari/XMC4800/UART/Libraries/XMCLib/inc\xmc_usic.h ****  * @param  channel Pointer to USIC channel handler of type @ref XMC_USIC_CH_t \n
 825:C:/work_mari/XMC4800/UART/Libraries/XMCLib/inc\xmc_usic.h ****  * 				   \b Range: @ref XMC_USIC0_CH0, @ref XMC_USIC0_CH1 to @ref XMC_USIC2_CH1 based on device su
 826:C:/work_mari/XMC4800/UART/Libraries/XMCLib/inc\xmc_usic.h ****  * @param  input USIC channel input stage of type @ref XMC_USIC_CH_INPUT_t. \n
 827:C:/work_mari/XMC4800/UART/Libraries/XMCLib/inc\xmc_usic.h ****  * 				 \b Range: @ref XMC_USIC_CH_INPUT_DX0 to @ref XMC_USIC_CH_INPUT_DX5
 828:C:/work_mari/XMC4800/UART/Libraries/XMCLib/inc\xmc_usic.h ****  * @param  source Input source select for the input stage. The table below maps the enum value with
 829:C:/work_mari/XMC4800/UART/Libraries/XMCLib/inc\xmc_usic.h ****  * <table><tr><td>0</td><td>DXnA</td></tr><tr><td>1</td><td>DXnB</td></tr><tr><td>2</td><td>DXnC</t
 830:C:/work_mari/XMC4800/UART/Libraries/XMCLib/inc\xmc_usic.h ****  * <tr><td>4</td><td>DXnE</td></tr><tr><td>5</td><td>DXnF</td></tr><tr><td>6</td><td>DXnG</td></tr>
 831:C:/work_mari/XMC4800/UART/Libraries/XMCLib/inc\xmc_usic.h ****  * </tr></table>
 832:C:/work_mari/XMC4800/UART/Libraries/XMCLib/inc\xmc_usic.h ****  * @return None
 833:C:/work_mari/XMC4800/UART/Libraries/XMCLib/inc\xmc_usic.h ****  *
 834:C:/work_mari/XMC4800/UART/Libraries/XMCLib/inc\xmc_usic.h ****  * \par<b>Description</b><br>
 835:C:/work_mari/XMC4800/UART/Libraries/XMCLib/inc\xmc_usic.h ****  * Selects the data source for USIC input stage.\n\n
 836:C:/work_mari/XMC4800/UART/Libraries/XMCLib/inc\xmc_usic.h ****  * Selects the input data signal source among DXnA, DXnB.. DXnG for the input stage. The API can be
 837:C:/work_mari/XMC4800/UART/Libraries/XMCLib/inc\xmc_usic.h ****  * like DX0CR, DX1CR etc.
 838:C:/work_mari/XMC4800/UART/Libraries/XMCLib/inc\xmc_usic.h ****  *
 839:C:/work_mari/XMC4800/UART/Libraries/XMCLib/inc\xmc_usic.h ****  * \par<b>Related APIs:</b><BR>
 840:C:/work_mari/XMC4800/UART/Libraries/XMCLib/inc\xmc_usic.h ****  * XMC_USIC_CH_EnableInputInversion(), XMC_USIC_CH_EnableInputDigitalFilter(), XMC_USIC_CH_EnableIn
 841:C:/work_mari/XMC4800/UART/Libraries/XMCLib/inc\xmc_usic.h ****  * XMC_USIC_CH_SetInputSamplingFreq()\n\n\n
 842:C:/work_mari/XMC4800/UART/Libraries/XMCLib/inc\xmc_usic.h ****  */
 843:C:/work_mari/XMC4800/UART/Libraries/XMCLib/inc\xmc_usic.h **** __STATIC_INLINE void XMC_USIC_CH_SetInputSource(XMC_USIC_CH_t *const channel, const XMC_USIC_CH_INP
 844:C:/work_mari/XMC4800/UART/Libraries/XMCLib/inc\xmc_usic.h **** {
  27              	 .loc 1 844 0
  28              	 .cfi_startproc
  29              	 
  30              	 
  31              	 
  32 0000 80B4     	 push {r7}
  33              	.LCFI0:
  34              	 .cfi_def_cfa_offset 4
  35              	 .cfi_offset 7,-4
  36 0002 83B0     	 sub sp,sp,#12
  37              	.LCFI1:
  38              	 .cfi_def_cfa_offset 16
  39 0004 00AF     	 add r7,sp,#0
  40              	.LCFI2:
  41              	 .cfi_def_cfa_register 7
  42 0006 7860     	 str r0,[r7,#4]
  43 0008 0B46     	 mov r3,r1
  44 000a FB70     	 strb r3,[r7,#3]
  45 000c 1346     	 mov r3,r2
  46 000e BB70     	 strb r3,[r7,#2]
 845:C:/work_mari/XMC4800/UART/Libraries/XMCLib/inc\xmc_usic.h ****   channel->DXCR[input] = (uint32_t)((channel->DXCR[input] & (uint32_t)(~USIC_CH_DXCR_DSEL_Msk)) |
  47              	 .loc 1 845 0
  48 0010 F878     	 ldrb r0,[r7,#3]
  49 0012 FB78     	 ldrb r3,[r7,#3]
  50 0014 7A68     	 ldr r2,[r7,#4]
  51 0016 0633     	 adds r3,r3,#6
  52 0018 9B00     	 lsls r3,r3,#2
  53 001a 1344     	 add r3,r3,r2
  54 001c 5B68     	 ldr r3,[r3,#4]
  55 001e 23F00702 	 bic r2,r3,#7
 846:C:/work_mari/XMC4800/UART/Libraries/XMCLib/inc\xmc_usic.h ****                                     ((uint32_t)source << USIC_CH_DXCR_DSEL_Pos));
  56              	 .loc 1 846 0
  57 0022 BB78     	 ldrb r3,[r7,#2]
 845:C:/work_mari/XMC4800/UART/Libraries/XMCLib/inc\xmc_usic.h ****   channel->DXCR[input] = (uint32_t)((channel->DXCR[input] & (uint32_t)(~USIC_CH_DXCR_DSEL_Msk)) |
  58              	 .loc 1 845 0
  59 0024 1A43     	 orrs r2,r2,r3
  60 0026 7968     	 ldr r1,[r7,#4]
  61 0028 831D     	 adds r3,r0,#6
  62 002a 9B00     	 lsls r3,r3,#2
  63 002c 0B44     	 add r3,r3,r1
  64 002e 5A60     	 str r2,[r3,#4]
 847:C:/work_mari/XMC4800/UART/Libraries/XMCLib/inc\xmc_usic.h **** }
  65              	 .loc 1 847 0
  66 0030 0C37     	 adds r7,r7,#12
  67              	.LCFI3:
  68              	 .cfi_def_cfa_offset 4
  69 0032 BD46     	 mov sp,r7
  70              	.LCFI4:
  71              	 .cfi_def_cfa_register 13
  72              	 
  73 0034 5DF8047B 	 ldr r7,[sp],#4
  74              	.LCFI5:
  75              	 .cfi_restore 7
  76              	 .cfi_def_cfa_offset 0
  77 0038 7047     	 bx lr
  78              	 .cfi_endproc
  79              	.LFE186:
  81 003a 00BF     	 .section .text.XMC_USIC_CH_EnableInputInversion,"ax",%progbits
  82              	 .align 2
  83              	 .thumb
  84              	 .thumb_func
  86              	XMC_USIC_CH_EnableInputInversion:
  87              	.LFB189:
 848:C:/work_mari/XMC4800/UART/Libraries/XMCLib/inc\xmc_usic.h **** /**
 849:C:/work_mari/XMC4800/UART/Libraries/XMCLib/inc\xmc_usic.h ****  * @param  channel Pointer to USIC channel handler of type @ref XMC_USIC_CH_t \n
 850:C:/work_mari/XMC4800/UART/Libraries/XMCLib/inc\xmc_usic.h ****  * 				   \b Range: @ref XMC_USIC0_CH0, @ref XMC_USIC0_CH1 to @ref XMC_USIC2_CH1 based on device su
 851:C:/work_mari/XMC4800/UART/Libraries/XMCLib/inc\xmc_usic.h ****  * @param  input USIC channel input stage of type @ref XMC_USIC_CH_INPUT_t. \n
 852:C:/work_mari/XMC4800/UART/Libraries/XMCLib/inc\xmc_usic.h ****  * 				 \b Range: @ref XMC_USIC_CH_INPUT_DX0 to @ref XMC_USIC_CH_INPUT_DX5
 853:C:/work_mari/XMC4800/UART/Libraries/XMCLib/inc\xmc_usic.h ****  * @return None
 854:C:/work_mari/XMC4800/UART/Libraries/XMCLib/inc\xmc_usic.h ****  *
 855:C:/work_mari/XMC4800/UART/Libraries/XMCLib/inc\xmc_usic.h ****  * \par<b>Description</b><br>
 856:C:/work_mari/XMC4800/UART/Libraries/XMCLib/inc\xmc_usic.h ****  * The input of the data shift unit is controlled by the
 857:C:/work_mari/XMC4800/UART/Libraries/XMCLib/inc\xmc_usic.h ****  * protocol pre-processor. \n\n
 858:C:/work_mari/XMC4800/UART/Libraries/XMCLib/inc\xmc_usic.h ****  *
 859:C:/work_mari/XMC4800/UART/Libraries/XMCLib/inc\xmc_usic.h ****  * \par<b>Related APIs:</b><BR>
 860:C:/work_mari/XMC4800/UART/Libraries/XMCLib/inc\xmc_usic.h ****  * XMC_USIC_CH_ConnectInputDataShiftToDataInput()\n\n\n
 861:C:/work_mari/XMC4800/UART/Libraries/XMCLib/inc\xmc_usic.h ****  */
 862:C:/work_mari/XMC4800/UART/Libraries/XMCLib/inc\xmc_usic.h **** __STATIC_INLINE void XMC_USIC_CH_ConnectInputDataShiftToPPP(XMC_USIC_CH_t *const channel, const XMC
 863:C:/work_mari/XMC4800/UART/Libraries/XMCLib/inc\xmc_usic.h **** {
 864:C:/work_mari/XMC4800/UART/Libraries/XMCLib/inc\xmc_usic.h ****   channel->DXCR[input] &= (uint32_t)~USIC_CH_DXCR_INSW_Msk;
 865:C:/work_mari/XMC4800/UART/Libraries/XMCLib/inc\xmc_usic.h **** }
 866:C:/work_mari/XMC4800/UART/Libraries/XMCLib/inc\xmc_usic.h **** 
 867:C:/work_mari/XMC4800/UART/Libraries/XMCLib/inc\xmc_usic.h **** /**
 868:C:/work_mari/XMC4800/UART/Libraries/XMCLib/inc\xmc_usic.h ****  * @param  channel Pointer to USIC channel handler of type @ref XMC_USIC_CH_t \n
 869:C:/work_mari/XMC4800/UART/Libraries/XMCLib/inc\xmc_usic.h ****  * 				   \b Range: @ref XMC_USIC0_CH0, @ref XMC_USIC0_CH1 to @ref XMC_USIC2_CH1 based on device su
 870:C:/work_mari/XMC4800/UART/Libraries/XMCLib/inc\xmc_usic.h ****  * @param  input USIC channel input stage of type @ref XMC_USIC_CH_INPUT_t. \n
 871:C:/work_mari/XMC4800/UART/Libraries/XMCLib/inc\xmc_usic.h ****  * 				 \b Range: @ref XMC_USIC_CH_INPUT_DX0 to @ref XMC_USIC_CH_INPUT_DX5
 872:C:/work_mari/XMC4800/UART/Libraries/XMCLib/inc\xmc_usic.h ****  * @return None
 873:C:/work_mari/XMC4800/UART/Libraries/XMCLib/inc\xmc_usic.h ****  *
 874:C:/work_mari/XMC4800/UART/Libraries/XMCLib/inc\xmc_usic.h ****  * \par<b>Description</b><br>
 875:C:/work_mari/XMC4800/UART/Libraries/XMCLib/inc\xmc_usic.h ****  * The input of the data shift unit is connected to
 876:C:/work_mari/XMC4800/UART/Libraries/XMCLib/inc\xmc_usic.h ****  * the selected data input line. \n\n
 877:C:/work_mari/XMC4800/UART/Libraries/XMCLib/inc\xmc_usic.h ****  *
 878:C:/work_mari/XMC4800/UART/Libraries/XMCLib/inc\xmc_usic.h ****  * This setting is used
 879:C:/work_mari/XMC4800/UART/Libraries/XMCLib/inc\xmc_usic.h ****  * if the signals are directly derived from an input
 880:C:/work_mari/XMC4800/UART/Libraries/XMCLib/inc\xmc_usic.h ****  * pin without treatment by the protocol preprocessor.
 881:C:/work_mari/XMC4800/UART/Libraries/XMCLib/inc\xmc_usic.h ****  * \par<b>Related APIs:</b><BR>
 882:C:/work_mari/XMC4800/UART/Libraries/XMCLib/inc\xmc_usic.h ****  * XMC_USIC_CH_ConnectInputDataShiftToPPP()\n\n\n
 883:C:/work_mari/XMC4800/UART/Libraries/XMCLib/inc\xmc_usic.h ****  */
 884:C:/work_mari/XMC4800/UART/Libraries/XMCLib/inc\xmc_usic.h **** __STATIC_INLINE void XMC_USIC_CH_ConnectInputDataShiftToDataInput(XMC_USIC_CH_t *const channel, con
 885:C:/work_mari/XMC4800/UART/Libraries/XMCLib/inc\xmc_usic.h **** {
 886:C:/work_mari/XMC4800/UART/Libraries/XMCLib/inc\xmc_usic.h ****   channel->DXCR[input] |= USIC_CH_DXCR_INSW_Msk;
 887:C:/work_mari/XMC4800/UART/Libraries/XMCLib/inc\xmc_usic.h **** }
 888:C:/work_mari/XMC4800/UART/Libraries/XMCLib/inc\xmc_usic.h **** 
 889:C:/work_mari/XMC4800/UART/Libraries/XMCLib/inc\xmc_usic.h **** /**
 890:C:/work_mari/XMC4800/UART/Libraries/XMCLib/inc\xmc_usic.h ****  * @param  channel Pointer to USIC channel handler of type @ref XMC_USIC_CH_t \n
 891:C:/work_mari/XMC4800/UART/Libraries/XMCLib/inc\xmc_usic.h ****  * 				   \b Range: @ref XMC_USIC0_CH0, @ref XMC_USIC0_CH1 to @ref XMC_USIC2_CH1 based on device su
 892:C:/work_mari/XMC4800/UART/Libraries/XMCLib/inc\xmc_usic.h ****  * @param  input USIC channel input stage of type @ref XMC_USIC_CH_INPUT_t. \n
 893:C:/work_mari/XMC4800/UART/Libraries/XMCLib/inc\xmc_usic.h ****  * 				 \b Range: @ref XMC_USIC_CH_INPUT_DX0 to @ref XMC_USIC_CH_INPUT_DX5
 894:C:/work_mari/XMC4800/UART/Libraries/XMCLib/inc\xmc_usic.h ****  * @return None
 895:C:/work_mari/XMC4800/UART/Libraries/XMCLib/inc\xmc_usic.h ****  *
 896:C:/work_mari/XMC4800/UART/Libraries/XMCLib/inc\xmc_usic.h ****  * \par<b>Description</b><br>
 897:C:/work_mari/XMC4800/UART/Libraries/XMCLib/inc\xmc_usic.h ****  * Enables input inversion for USIC channel input data signal. \n\n
 898:C:/work_mari/XMC4800/UART/Libraries/XMCLib/inc\xmc_usic.h ****  *
 899:C:/work_mari/XMC4800/UART/Libraries/XMCLib/inc\xmc_usic.h ****  * Polarity of the input source can be changed to provide inverted data input.
 900:C:/work_mari/XMC4800/UART/Libraries/XMCLib/inc\xmc_usic.h ****  * \par<b>Related APIs:</b><BR>
 901:C:/work_mari/XMC4800/UART/Libraries/XMCLib/inc\xmc_usic.h ****  * XMC_USIC_CH_DisableInputInversion()\n\n\n
 902:C:/work_mari/XMC4800/UART/Libraries/XMCLib/inc\xmc_usic.h ****  */
 903:C:/work_mari/XMC4800/UART/Libraries/XMCLib/inc\xmc_usic.h **** __STATIC_INLINE void XMC_USIC_CH_EnableInputInversion(XMC_USIC_CH_t *const channel, const XMC_USIC_
 904:C:/work_mari/XMC4800/UART/Libraries/XMCLib/inc\xmc_usic.h **** {
  88              	 .loc 1 904 0
  89              	 .cfi_startproc
  90              	 
  91              	 
  92              	 
  93 0000 80B4     	 push {r7}
  94              	.LCFI6:
  95              	 .cfi_def_cfa_offset 4
  96              	 .cfi_offset 7,-4
  97 0002 83B0     	 sub sp,sp,#12
  98              	.LCFI7:
  99              	 .cfi_def_cfa_offset 16
 100 0004 00AF     	 add r7,sp,#0
 101              	.LCFI8:
 102              	 .cfi_def_cfa_register 7
 103 0006 7860     	 str r0,[r7,#4]
 104 0008 0B46     	 mov r3,r1
 105 000a FB70     	 strb r3,[r7,#3]
 905:C:/work_mari/XMC4800/UART/Libraries/XMCLib/inc\xmc_usic.h ****   channel->DXCR[input] |= USIC_CH_DXCR_DPOL_Msk;
 106              	 .loc 1 905 0
 107 000c F878     	 ldrb r0,[r7,#3]
 108 000e FB78     	 ldrb r3,[r7,#3]
 109 0010 7A68     	 ldr r2,[r7,#4]
 110 0012 0633     	 adds r3,r3,#6
 111 0014 9B00     	 lsls r3,r3,#2
 112 0016 1344     	 add r3,r3,r2
 113 0018 5B68     	 ldr r3,[r3,#4]
 114 001a 43F48072 	 orr r2,r3,#256
 115 001e 7968     	 ldr r1,[r7,#4]
 116 0020 831D     	 adds r3,r0,#6
 117 0022 9B00     	 lsls r3,r3,#2
 118 0024 0B44     	 add r3,r3,r1
 119 0026 5A60     	 str r2,[r3,#4]
 906:C:/work_mari/XMC4800/UART/Libraries/XMCLib/inc\xmc_usic.h **** }
 120              	 .loc 1 906 0
 121 0028 0C37     	 adds r7,r7,#12
 122              	.LCFI9:
 123              	 .cfi_def_cfa_offset 4
 124 002a BD46     	 mov sp,r7
 125              	.LCFI10:
 126              	 .cfi_def_cfa_register 13
 127              	 
 128 002c 5DF8047B 	 ldr r7,[sp],#4
 129              	.LCFI11:
 130              	 .cfi_restore 7
 131              	 .cfi_def_cfa_offset 0
 132 0030 7047     	 bx lr
 133              	 .cfi_endproc
 134              	.LFE189:
 136 0032 00BF     	 .section .text.XMC_USIC_CH_SetShiftDirection,"ax",%progbits
 137              	 .align 2
 138              	 .thumb
 139              	 .thumb_func
 141              	XMC_USIC_CH_SetShiftDirection:
 142              	.LFB203:
 907:C:/work_mari/XMC4800/UART/Libraries/XMCLib/inc\xmc_usic.h **** 
 908:C:/work_mari/XMC4800/UART/Libraries/XMCLib/inc\xmc_usic.h **** /**
 909:C:/work_mari/XMC4800/UART/Libraries/XMCLib/inc\xmc_usic.h ****  * @param  channel Pointer to USIC channel handler of type @ref XMC_USIC_CH_t \n
 910:C:/work_mari/XMC4800/UART/Libraries/XMCLib/inc\xmc_usic.h ****  * 				   \b Range: @ref XMC_USIC0_CH0, @ref XMC_USIC0_CH1 to @ref XMC_USIC2_CH1 based on device su
 911:C:/work_mari/XMC4800/UART/Libraries/XMCLib/inc\xmc_usic.h ****  * @param  input USIC channel input stage of type @ref XMC_USIC_CH_INPUT_t. \n
 912:C:/work_mari/XMC4800/UART/Libraries/XMCLib/inc\xmc_usic.h ****  * 				 \b Range: @ref XMC_USIC_CH_INPUT_DX0 to @ref XMC_USIC_CH_INPUT_DX5
 913:C:/work_mari/XMC4800/UART/Libraries/XMCLib/inc\xmc_usic.h ****  * @return None
 914:C:/work_mari/XMC4800/UART/Libraries/XMCLib/inc\xmc_usic.h ****  *
 915:C:/work_mari/XMC4800/UART/Libraries/XMCLib/inc\xmc_usic.h ****  * \par<b>Description</b><br>
 916:C:/work_mari/XMC4800/UART/Libraries/XMCLib/inc\xmc_usic.h ****  * Disables input inversion for USIC channel. \n\n
 917:C:/work_mari/XMC4800/UART/Libraries/XMCLib/inc\xmc_usic.h ****  *
 918:C:/work_mari/XMC4800/UART/Libraries/XMCLib/inc\xmc_usic.h ****  * Resets the input data polarity for the USIC channel input data signal.
 919:C:/work_mari/XMC4800/UART/Libraries/XMCLib/inc\xmc_usic.h ****  * \par<b>Related APIs:</b><BR>
 920:C:/work_mari/XMC4800/UART/Libraries/XMCLib/inc\xmc_usic.h ****  * XMC_USIC_CH_EnableInputInversion()\n\n\n
 921:C:/work_mari/XMC4800/UART/Libraries/XMCLib/inc\xmc_usic.h ****  */
 922:C:/work_mari/XMC4800/UART/Libraries/XMCLib/inc\xmc_usic.h **** __STATIC_INLINE void XMC_USIC_CH_DisableInputInversion(XMC_USIC_CH_t *const channel, const XMC_USIC
 923:C:/work_mari/XMC4800/UART/Libraries/XMCLib/inc\xmc_usic.h **** {
 924:C:/work_mari/XMC4800/UART/Libraries/XMCLib/inc\xmc_usic.h ****   channel->DXCR[input] &= (uint32_t)~USIC_CH_DXCR_DPOL_Msk;
 925:C:/work_mari/XMC4800/UART/Libraries/XMCLib/inc\xmc_usic.h **** }
 926:C:/work_mari/XMC4800/UART/Libraries/XMCLib/inc\xmc_usic.h **** 
 927:C:/work_mari/XMC4800/UART/Libraries/XMCLib/inc\xmc_usic.h **** /**
 928:C:/work_mari/XMC4800/UART/Libraries/XMCLib/inc\xmc_usic.h ****  * @param  channel Pointer to USIC channel handler of type @ref XMC_USIC_CH_t \n
 929:C:/work_mari/XMC4800/UART/Libraries/XMCLib/inc\xmc_usic.h ****  * 				   \b Range: @ref XMC_USIC0_CH0, @ref XMC_USIC0_CH1 to @ref XMC_USIC2_CH1 based on device su
 930:C:/work_mari/XMC4800/UART/Libraries/XMCLib/inc\xmc_usic.h ****  * @return None
 931:C:/work_mari/XMC4800/UART/Libraries/XMCLib/inc\xmc_usic.h ****  *
 932:C:/work_mari/XMC4800/UART/Libraries/XMCLib/inc\xmc_usic.h ****  * \par<b>Description</b><br>
 933:C:/work_mari/XMC4800/UART/Libraries/XMCLib/inc\xmc_usic.h ****  * Enables delay compensation. \n\n
 934:C:/work_mari/XMC4800/UART/Libraries/XMCLib/inc\xmc_usic.h ****  *
 935:C:/work_mari/XMC4800/UART/Libraries/XMCLib/inc\xmc_usic.h ****  * Delay compensation can be applied to the receive path.
 936:C:/work_mari/XMC4800/UART/Libraries/XMCLib/inc\xmc_usic.h ****  * \par<b>Related APIs:</b><BR>
 937:C:/work_mari/XMC4800/UART/Libraries/XMCLib/inc\xmc_usic.h ****  * XMC_USIC_CH_DisableDelayCompensation()\n\n\n
 938:C:/work_mari/XMC4800/UART/Libraries/XMCLib/inc\xmc_usic.h ****  */
 939:C:/work_mari/XMC4800/UART/Libraries/XMCLib/inc\xmc_usic.h **** __STATIC_INLINE void XMC_USIC_CH_EnableDelayCompensation(XMC_USIC_CH_t *const channel)
 940:C:/work_mari/XMC4800/UART/Libraries/XMCLib/inc\xmc_usic.h **** {
 941:C:/work_mari/XMC4800/UART/Libraries/XMCLib/inc\xmc_usic.h ****   channel->DXCR[1U] |= USIC_CH_DX1CR_DCEN_Msk;
 942:C:/work_mari/XMC4800/UART/Libraries/XMCLib/inc\xmc_usic.h **** }
 943:C:/work_mari/XMC4800/UART/Libraries/XMCLib/inc\xmc_usic.h **** 
 944:C:/work_mari/XMC4800/UART/Libraries/XMCLib/inc\xmc_usic.h **** /**
 945:C:/work_mari/XMC4800/UART/Libraries/XMCLib/inc\xmc_usic.h ****  * @param  channel Pointer to USIC channel handler of type @ref XMC_USIC_CH_t \n
 946:C:/work_mari/XMC4800/UART/Libraries/XMCLib/inc\xmc_usic.h ****  * 				   \b Range: @ref XMC_USIC0_CH0, @ref XMC_USIC0_CH1 to @ref XMC_USIC2_CH1 based on device su
 947:C:/work_mari/XMC4800/UART/Libraries/XMCLib/inc\xmc_usic.h ****  * @return None
 948:C:/work_mari/XMC4800/UART/Libraries/XMCLib/inc\xmc_usic.h ****  *
 949:C:/work_mari/XMC4800/UART/Libraries/XMCLib/inc\xmc_usic.h ****  * \par<b>Description</b><br>
 950:C:/work_mari/XMC4800/UART/Libraries/XMCLib/inc\xmc_usic.h ****  * Disables delay compensation.. \n\n
 951:C:/work_mari/XMC4800/UART/Libraries/XMCLib/inc\xmc_usic.h ****  *
 952:C:/work_mari/XMC4800/UART/Libraries/XMCLib/inc\xmc_usic.h ****  * \par<b>Related APIs:</b><BR>
 953:C:/work_mari/XMC4800/UART/Libraries/XMCLib/inc\xmc_usic.h ****  * XMC_USIC_CH_EnableDelayCompensation()\n\n\n
 954:C:/work_mari/XMC4800/UART/Libraries/XMCLib/inc\xmc_usic.h ****  */
 955:C:/work_mari/XMC4800/UART/Libraries/XMCLib/inc\xmc_usic.h **** __STATIC_INLINE void XMC_USIC_CH_DisableDelayCompensation(XMC_USIC_CH_t *const channel)
 956:C:/work_mari/XMC4800/UART/Libraries/XMCLib/inc\xmc_usic.h **** {
 957:C:/work_mari/XMC4800/UART/Libraries/XMCLib/inc\xmc_usic.h ****   channel->DXCR[1U] &= (uint32_t)~USIC_CH_DX1CR_DCEN_Msk;
 958:C:/work_mari/XMC4800/UART/Libraries/XMCLib/inc\xmc_usic.h **** }
 959:C:/work_mari/XMC4800/UART/Libraries/XMCLib/inc\xmc_usic.h **** 
 960:C:/work_mari/XMC4800/UART/Libraries/XMCLib/inc\xmc_usic.h **** /**
 961:C:/work_mari/XMC4800/UART/Libraries/XMCLib/inc\xmc_usic.h ****  * @param  channel Pointer to USIC channel handler of type @ref XMC_USIC_CH_t \n
 962:C:/work_mari/XMC4800/UART/Libraries/XMCLib/inc\xmc_usic.h ****  * 				   \b Range: @ref XMC_USIC0_CH0, @ref XMC_USIC0_CH1 to @ref XMC_USIC2_CH1 based on device su
 963:C:/work_mari/XMC4800/UART/Libraries/XMCLib/inc\xmc_usic.h ****  * @param  input USIC channel input stage of type @ref XMC_USIC_CH_INPUT_t. \n
 964:C:/work_mari/XMC4800/UART/Libraries/XMCLib/inc\xmc_usic.h ****  * 				 \b Range: @ref XMC_USIC_CH_INPUT_DX0 to @ref XMC_USIC_CH_INPUT_DX5
 965:C:/work_mari/XMC4800/UART/Libraries/XMCLib/inc\xmc_usic.h ****  * @return None
 966:C:/work_mari/XMC4800/UART/Libraries/XMCLib/inc\xmc_usic.h ****  *
 967:C:/work_mari/XMC4800/UART/Libraries/XMCLib/inc\xmc_usic.h ****  * \par<b>Description</b><br>
 968:C:/work_mari/XMC4800/UART/Libraries/XMCLib/inc\xmc_usic.h ****  * Enables the input digital filter for USIC channel input data signal. \n\n
 969:C:/work_mari/XMC4800/UART/Libraries/XMCLib/inc\xmc_usic.h ****  * Input data signal from the selected multiplexer will be digitally filtered.
 970:C:/work_mari/XMC4800/UART/Libraries/XMCLib/inc\xmc_usic.h ****  *
 971:C:/work_mari/XMC4800/UART/Libraries/XMCLib/inc\xmc_usic.h ****  * \par<b>Related APIs:</b><BR>
 972:C:/work_mari/XMC4800/UART/Libraries/XMCLib/inc\xmc_usic.h ****  * XMC_USIC_CH_DisableInputDigitalFilter()\n\n\n
 973:C:/work_mari/XMC4800/UART/Libraries/XMCLib/inc\xmc_usic.h ****  */
 974:C:/work_mari/XMC4800/UART/Libraries/XMCLib/inc\xmc_usic.h **** __STATIC_INLINE void XMC_USIC_CH_EnableInputDigitalFilter(XMC_USIC_CH_t *const channel, const XMC_U
 975:C:/work_mari/XMC4800/UART/Libraries/XMCLib/inc\xmc_usic.h **** {
 976:C:/work_mari/XMC4800/UART/Libraries/XMCLib/inc\xmc_usic.h ****   channel->DXCR[input] |= (uint32_t)USIC_CH_DXCR_DFEN_Msk;
 977:C:/work_mari/XMC4800/UART/Libraries/XMCLib/inc\xmc_usic.h **** }
 978:C:/work_mari/XMC4800/UART/Libraries/XMCLib/inc\xmc_usic.h **** /**
 979:C:/work_mari/XMC4800/UART/Libraries/XMCLib/inc\xmc_usic.h ****  * @param  channel Pointer to USIC channel handler of type @ref XMC_USIC_CH_t \n
 980:C:/work_mari/XMC4800/UART/Libraries/XMCLib/inc\xmc_usic.h ****  * 				   \b Range: @ref XMC_USIC0_CH0, @ref XMC_USIC0_CH1 to @ref XMC_USIC2_CH1 based on device su
 981:C:/work_mari/XMC4800/UART/Libraries/XMCLib/inc\xmc_usic.h ****  * @param  input USIC channel input stage of type @ref XMC_USIC_CH_INPUT_t. \n
 982:C:/work_mari/XMC4800/UART/Libraries/XMCLib/inc\xmc_usic.h ****  * 				 \b Range: @ref XMC_USIC_CH_INPUT_DX0 to @ref XMC_USIC_CH_INPUT_DX5
 983:C:/work_mari/XMC4800/UART/Libraries/XMCLib/inc\xmc_usic.h ****  * @return None
 984:C:/work_mari/XMC4800/UART/Libraries/XMCLib/inc\xmc_usic.h ****  *
 985:C:/work_mari/XMC4800/UART/Libraries/XMCLib/inc\xmc_usic.h ****  * \par<b>Description</b><br>
 986:C:/work_mari/XMC4800/UART/Libraries/XMCLib/inc\xmc_usic.h ****  * Disables the input digital filter for USIC channel input data signal. \n\n
 987:C:/work_mari/XMC4800/UART/Libraries/XMCLib/inc\xmc_usic.h ****  * Input data signal from the selected multiplexer will not be digitally filtered.
 988:C:/work_mari/XMC4800/UART/Libraries/XMCLib/inc\xmc_usic.h ****  *
 989:C:/work_mari/XMC4800/UART/Libraries/XMCLib/inc\xmc_usic.h ****  * \par<b>Related APIs:</b><BR>
 990:C:/work_mari/XMC4800/UART/Libraries/XMCLib/inc\xmc_usic.h ****  * XMC_USIC_CH_EnableInputDigitalFilter()\n\n\n
 991:C:/work_mari/XMC4800/UART/Libraries/XMCLib/inc\xmc_usic.h ****  */
 992:C:/work_mari/XMC4800/UART/Libraries/XMCLib/inc\xmc_usic.h **** __STATIC_INLINE void XMC_USIC_CH_DisableInputDigitalFilter(XMC_USIC_CH_t *const channel, const XMC_
 993:C:/work_mari/XMC4800/UART/Libraries/XMCLib/inc\xmc_usic.h **** {
 994:C:/work_mari/XMC4800/UART/Libraries/XMCLib/inc\xmc_usic.h ****   channel->DXCR[input] &= (uint32_t)~USIC_CH_DXCR_DFEN_Msk;
 995:C:/work_mari/XMC4800/UART/Libraries/XMCLib/inc\xmc_usic.h **** }
 996:C:/work_mari/XMC4800/UART/Libraries/XMCLib/inc\xmc_usic.h **** /**
 997:C:/work_mari/XMC4800/UART/Libraries/XMCLib/inc\xmc_usic.h ****  * @param  channel Pointer to USIC channel handler of type @ref XMC_USIC_CH_t \n
 998:C:/work_mari/XMC4800/UART/Libraries/XMCLib/inc\xmc_usic.h ****  * 				   \b Range: @ref XMC_USIC0_CH0, @ref XMC_USIC0_CH1 to @ref XMC_USIC2_CH1 based on device su
 999:C:/work_mari/XMC4800/UART/Libraries/XMCLib/inc\xmc_usic.h ****  * @param  input USIC channel input stage of type @ref XMC_USIC_CH_INPUT_t. \n
1000:C:/work_mari/XMC4800/UART/Libraries/XMCLib/inc\xmc_usic.h ****  * 				 \b Range: @ref XMC_USIC_CH_INPUT_DX0 to @ref XMC_USIC_CH_INPUT_DX5
1001:C:/work_mari/XMC4800/UART/Libraries/XMCLib/inc\xmc_usic.h ****  * @return None
1002:C:/work_mari/XMC4800/UART/Libraries/XMCLib/inc\xmc_usic.h ****  *
1003:C:/work_mari/XMC4800/UART/Libraries/XMCLib/inc\xmc_usic.h ****  * \par<b>Description</b><br>
1004:C:/work_mari/XMC4800/UART/Libraries/XMCLib/inc\xmc_usic.h ****  * Enables input synchronization for the USIC channel input data signal. \n\n
1005:C:/work_mari/XMC4800/UART/Libraries/XMCLib/inc\xmc_usic.h ****  * Input data signal from the selected multiplexer will be synchronized with fPERIPH.
1006:C:/work_mari/XMC4800/UART/Libraries/XMCLib/inc\xmc_usic.h ****  * A noisy signal can be synchronized and filtered by enabling the digital filter.
1007:C:/work_mari/XMC4800/UART/Libraries/XMCLib/inc\xmc_usic.h ****  *
1008:C:/work_mari/XMC4800/UART/Libraries/XMCLib/inc\xmc_usic.h ****  * \par<b>Related APIs:</b><BR>
1009:C:/work_mari/XMC4800/UART/Libraries/XMCLib/inc\xmc_usic.h ****  * XMC_USIC_CH_DisableInputSync(), XMC_USIC_CH_EnableInputDigitalFilter()\n\n\n
1010:C:/work_mari/XMC4800/UART/Libraries/XMCLib/inc\xmc_usic.h ****  */
1011:C:/work_mari/XMC4800/UART/Libraries/XMCLib/inc\xmc_usic.h **** __STATIC_INLINE void XMC_USIC_CH_EnableInputSync(XMC_USIC_CH_t *const channel, const XMC_USIC_CH_IN
1012:C:/work_mari/XMC4800/UART/Libraries/XMCLib/inc\xmc_usic.h **** {
1013:C:/work_mari/XMC4800/UART/Libraries/XMCLib/inc\xmc_usic.h ****   channel->DXCR[input] |= (uint32_t)USIC_CH_DXCR_DSEN_Msk;
1014:C:/work_mari/XMC4800/UART/Libraries/XMCLib/inc\xmc_usic.h **** }
1015:C:/work_mari/XMC4800/UART/Libraries/XMCLib/inc\xmc_usic.h **** /**
1016:C:/work_mari/XMC4800/UART/Libraries/XMCLib/inc\xmc_usic.h ****  * @param  channel Pointer to USIC channel handler of type @ref XMC_USIC_CH_t \n
1017:C:/work_mari/XMC4800/UART/Libraries/XMCLib/inc\xmc_usic.h ****  * 				   \b Range: @ref XMC_USIC0_CH0, @ref XMC_USIC0_CH1 to @ref XMC_USIC2_CH1 based on device su
1018:C:/work_mari/XMC4800/UART/Libraries/XMCLib/inc\xmc_usic.h ****  * @param  input USIC channel input stage of type @ref XMC_USIC_CH_INPUT_t. \n
1019:C:/work_mari/XMC4800/UART/Libraries/XMCLib/inc\xmc_usic.h ****  * 				 \b Range: @ref XMC_USIC_CH_INPUT_DX0 to @ref XMC_USIC_CH_INPUT_DX5
1020:C:/work_mari/XMC4800/UART/Libraries/XMCLib/inc\xmc_usic.h ****  * @return None
1021:C:/work_mari/XMC4800/UART/Libraries/XMCLib/inc\xmc_usic.h ****  *
1022:C:/work_mari/XMC4800/UART/Libraries/XMCLib/inc\xmc_usic.h ****  * \par<b>Description</b><br>
1023:C:/work_mari/XMC4800/UART/Libraries/XMCLib/inc\xmc_usic.h ****  * Disables input synchronization for the USIC channel input data signal. \n\n
1024:C:/work_mari/XMC4800/UART/Libraries/XMCLib/inc\xmc_usic.h ****  * Input data signal from the selected multiplexer will not be synchronized.
1025:C:/work_mari/XMC4800/UART/Libraries/XMCLib/inc\xmc_usic.h ****  *
1026:C:/work_mari/XMC4800/UART/Libraries/XMCLib/inc\xmc_usic.h ****  * \par<b>Related APIs:</b><BR>
1027:C:/work_mari/XMC4800/UART/Libraries/XMCLib/inc\xmc_usic.h ****  * XMC_USIC_CH_EnableInputSync(), XMC_USIC_CH_DisableInputDigitalFilter() \n\n\n
1028:C:/work_mari/XMC4800/UART/Libraries/XMCLib/inc\xmc_usic.h ****  */
1029:C:/work_mari/XMC4800/UART/Libraries/XMCLib/inc\xmc_usic.h **** __STATIC_INLINE void XMC_USIC_CH_DisableInputSync(XMC_USIC_CH_t *const channel, const XMC_USIC_CH_I
1030:C:/work_mari/XMC4800/UART/Libraries/XMCLib/inc\xmc_usic.h **** {
1031:C:/work_mari/XMC4800/UART/Libraries/XMCLib/inc\xmc_usic.h ****   channel->DXCR[input] &= (uint32_t)~USIC_CH_DXCR_DSEN_Msk;
1032:C:/work_mari/XMC4800/UART/Libraries/XMCLib/inc\xmc_usic.h **** }
1033:C:/work_mari/XMC4800/UART/Libraries/XMCLib/inc\xmc_usic.h **** /**
1034:C:/work_mari/XMC4800/UART/Libraries/XMCLib/inc\xmc_usic.h ****  * @param  channel Pointer to USIC channel handler of type @ref XMC_USIC_CH_t \n
1035:C:/work_mari/XMC4800/UART/Libraries/XMCLib/inc\xmc_usic.h ****  * 				   \b Range: @ref XMC_USIC0_CH0, @ref XMC_USIC0_CH1 to @ref XMC_USIC2_CH1 based on device su
1036:C:/work_mari/XMC4800/UART/Libraries/XMCLib/inc\xmc_usic.h ****  * @param  input USIC channel input stage of type @ref XMC_USIC_CH_INPUT_t. \n
1037:C:/work_mari/XMC4800/UART/Libraries/XMCLib/inc\xmc_usic.h ****  * 				 \b Range: @ref XMC_USIC_CH_INPUT_DX0 to @ref XMC_USIC_CH_INPUT_DX5
1038:C:/work_mari/XMC4800/UART/Libraries/XMCLib/inc\xmc_usic.h ****  * @param  sampling_freq Sampling frequency value of type \a XMC_USIC_CH_INPUT_SAMPLING_FREQ_t.
1039:C:/work_mari/XMC4800/UART/Libraries/XMCLib/inc\xmc_usic.h ****  * @return None
1040:C:/work_mari/XMC4800/UART/Libraries/XMCLib/inc\xmc_usic.h ****  *
1041:C:/work_mari/XMC4800/UART/Libraries/XMCLib/inc\xmc_usic.h ****  * \par<b>Description</b><br>
1042:C:/work_mari/XMC4800/UART/Libraries/XMCLib/inc\xmc_usic.h ****  * Sets sampling frequency for USIC channel input data signal. \n\n
1043:C:/work_mari/XMC4800/UART/Libraries/XMCLib/inc\xmc_usic.h ****  *
1044:C:/work_mari/XMC4800/UART/Libraries/XMCLib/inc\xmc_usic.h ****  * \par<b>Related APIs:</b><BR>
1045:C:/work_mari/XMC4800/UART/Libraries/XMCLib/inc\xmc_usic.h ****  * XMC_USIC_CH_SetInputSource(), XMC_USIC_CH_EnableInputSync(), XMC_USIC_CH_EnableInputDigitalFilte
1046:C:/work_mari/XMC4800/UART/Libraries/XMCLib/inc\xmc_usic.h ****  */
1047:C:/work_mari/XMC4800/UART/Libraries/XMCLib/inc\xmc_usic.h **** __STATIC_INLINE void XMC_USIC_CH_SetInputSamplingFreq(XMC_USIC_CH_t *const channel,
1048:C:/work_mari/XMC4800/UART/Libraries/XMCLib/inc\xmc_usic.h ****     const XMC_USIC_CH_INPUT_t input,
1049:C:/work_mari/XMC4800/UART/Libraries/XMCLib/inc\xmc_usic.h ****     const XMC_USIC_CH_INPUT_SAMPLING_FREQ_t sampling_freq)
1050:C:/work_mari/XMC4800/UART/Libraries/XMCLib/inc\xmc_usic.h **** {
1051:C:/work_mari/XMC4800/UART/Libraries/XMCLib/inc\xmc_usic.h ****   channel->DXCR[input] = (uint32_t)(channel->DXCR[input] & (~USIC_CH_DXCR_SFSEL_Msk)) |
1052:C:/work_mari/XMC4800/UART/Libraries/XMCLib/inc\xmc_usic.h ****                          ((uint32_t)sampling_freq);
1053:C:/work_mari/XMC4800/UART/Libraries/XMCLib/inc\xmc_usic.h **** }
1054:C:/work_mari/XMC4800/UART/Libraries/XMCLib/inc\xmc_usic.h **** 
1055:C:/work_mari/XMC4800/UART/Libraries/XMCLib/inc\xmc_usic.h **** /**
1056:C:/work_mari/XMC4800/UART/Libraries/XMCLib/inc\xmc_usic.h ****  * @param  channel Pointer to USIC channel handler of type @ref XMC_USIC_CH_t \n
1057:C:/work_mari/XMC4800/UART/Libraries/XMCLib/inc\xmc_usic.h ****  * 				   \b Range: @ref XMC_USIC0_CH0, @ref XMC_USIC0_CH1 to @ref XMC_USIC2_CH1 based on device su
1058:C:/work_mari/XMC4800/UART/Libraries/XMCLib/inc\xmc_usic.h ****  * @param  input USIC channel input stage of type @ref XMC_USIC_CH_INPUT_t. \n
1059:C:/work_mari/XMC4800/UART/Libraries/XMCLib/inc\xmc_usic.h ****  * 				 \b Range: @ref XMC_USIC_CH_INPUT_DX0 to @ref XMC_USIC_CH_INPUT_DX5
1060:C:/work_mari/XMC4800/UART/Libraries/XMCLib/inc\xmc_usic.h ****  * @param  combination_mode Combination mode value of type \a XMC_USIC_CH_INPUT_COMBINATION_MODE_t.
1061:C:/work_mari/XMC4800/UART/Libraries/XMCLib/inc\xmc_usic.h ****  * @return None
1062:C:/work_mari/XMC4800/UART/Libraries/XMCLib/inc\xmc_usic.h ****  *
1063:C:/work_mari/XMC4800/UART/Libraries/XMCLib/inc\xmc_usic.h ****  * \par<b>Description</b><br>
1064:C:/work_mari/XMC4800/UART/Libraries/XMCLib/inc\xmc_usic.h ****  * Selects which edge of the synchronized signal DXnS activates the trigger output DXnT of the inpu
1065:C:/work_mari/XMC4800/UART/Libraries/XMCLib/inc\xmc_usic.h ****  *
1066:C:/work_mari/XMC4800/UART/Libraries/XMCLib/inc\xmc_usic.h ****  * \par<b>Related APIs:</b><BR>
1067:C:/work_mari/XMC4800/UART/Libraries/XMCLib/inc\xmc_usic.h ****  * XMC_USIC_CH_SetInputSource(), XMC_USIC_CH_EnableInputSync(), XMC_USIC_CH_EnableInputDigitalFilte
1068:C:/work_mari/XMC4800/UART/Libraries/XMCLib/inc\xmc_usic.h ****  */
1069:C:/work_mari/XMC4800/UART/Libraries/XMCLib/inc\xmc_usic.h **** __STATIC_INLINE void XMC_USIC_CH_SetInputTriggerCombinationMode(XMC_USIC_CH_t *const channel,
1070:C:/work_mari/XMC4800/UART/Libraries/XMCLib/inc\xmc_usic.h ****     const XMC_USIC_CH_INPUT_t input,
1071:C:/work_mari/XMC4800/UART/Libraries/XMCLib/inc\xmc_usic.h ****     const XMC_USIC_CH_INPUT_COMBINATION_MODE_t combination_mode)
1072:C:/work_mari/XMC4800/UART/Libraries/XMCLib/inc\xmc_usic.h **** {
1073:C:/work_mari/XMC4800/UART/Libraries/XMCLib/inc\xmc_usic.h ****   channel->DXCR[input] = (uint32_t)(channel->DXCR[input] & (~USIC_CH_DXCR_CM_Msk)) |
1074:C:/work_mari/XMC4800/UART/Libraries/XMCLib/inc\xmc_usic.h ****                          ((uint32_t)combination_mode << USIC_CH_DXCR_CM_Pos);
1075:C:/work_mari/XMC4800/UART/Libraries/XMCLib/inc\xmc_usic.h **** }
1076:C:/work_mari/XMC4800/UART/Libraries/XMCLib/inc\xmc_usic.h **** 
1077:C:/work_mari/XMC4800/UART/Libraries/XMCLib/inc\xmc_usic.h **** /**
1078:C:/work_mari/XMC4800/UART/Libraries/XMCLib/inc\xmc_usic.h ****  * @param  channel Pointer to USIC channel handler of type @ref XMC_USIC_CH_t \n
1079:C:/work_mari/XMC4800/UART/Libraries/XMCLib/inc\xmc_usic.h ****  * 				   \b Range: @ref XMC_USIC0_CH0, @ref XMC_USIC0_CH1 to @ref XMC_USIC2_CH1 based on device su
1080:C:/work_mari/XMC4800/UART/Libraries/XMCLib/inc\xmc_usic.h ****  * @param  clock_source clock source for the BRG.
1081:C:/work_mari/XMC4800/UART/Libraries/XMCLib/inc\xmc_usic.h ****  * @return None
1082:C:/work_mari/XMC4800/UART/Libraries/XMCLib/inc\xmc_usic.h ****  *
1083:C:/work_mari/XMC4800/UART/Libraries/XMCLib/inc\xmc_usic.h ****  * \par<b>Description</b><br>
1084:C:/work_mari/XMC4800/UART/Libraries/XMCLib/inc\xmc_usic.h ****  * Sets the clock source for the BRG. \n\n
1085:C:/work_mari/XMC4800/UART/Libraries/XMCLib/inc\xmc_usic.h ****  *
1086:C:/work_mari/XMC4800/UART/Libraries/XMCLib/inc\xmc_usic.h ****  * \par<b>Related APIs:</b><BR>
1087:C:/work_mari/XMC4800/UART/Libraries/XMCLib/inc\xmc_usic.h ****  * XMC_USIC_CH_SetInputTriggerCombinationMode(), XMC_USIC_CH_SetExternalClockBRGDivider()\n\n\n
1088:C:/work_mari/XMC4800/UART/Libraries/XMCLib/inc\xmc_usic.h ****  */
1089:C:/work_mari/XMC4800/UART/Libraries/XMCLib/inc\xmc_usic.h **** __STATIC_INLINE void XMC_USIC_CH_SetBRGInputClockSource(XMC_USIC_CH_t *const channel, const XMC_USI
1090:C:/work_mari/XMC4800/UART/Libraries/XMCLib/inc\xmc_usic.h **** {
1091:C:/work_mari/XMC4800/UART/Libraries/XMCLib/inc\xmc_usic.h ****   channel->BRG = (uint32_t)(channel->BRG & (~USIC_CH_BRG_CLKSEL_Msk)) | (uint32_t)(clock_source);
1092:C:/work_mari/XMC4800/UART/Libraries/XMCLib/inc\xmc_usic.h **** }
1093:C:/work_mari/XMC4800/UART/Libraries/XMCLib/inc\xmc_usic.h **** 
1094:C:/work_mari/XMC4800/UART/Libraries/XMCLib/inc\xmc_usic.h **** /**
1095:C:/work_mari/XMC4800/UART/Libraries/XMCLib/inc\xmc_usic.h ****  * @param channel Pointer to USIC channel handler of type @ref XMC_USIC_CH_t \n
1096:C:/work_mari/XMC4800/UART/Libraries/XMCLib/inc\xmc_usic.h ****  * 				   \b Range: @ref XMC_USIC0_CH0, @ref XMC_USIC0_CH1 to @ref XMC_USIC2_CH1 based on device su
1097:C:/work_mari/XMC4800/UART/Libraries/XMCLib/inc\xmc_usic.h ****  * @param data Data to be transmitted. \n
1098:C:/work_mari/XMC4800/UART/Libraries/XMCLib/inc\xmc_usic.h ****  *           \b Range: 16bit unsigned data. minimum= 0, maximum= 65535
1099:C:/work_mari/XMC4800/UART/Libraries/XMCLib/inc\xmc_usic.h ****  * @return None
1100:C:/work_mari/XMC4800/UART/Libraries/XMCLib/inc\xmc_usic.h ****  *
1101:C:/work_mari/XMC4800/UART/Libraries/XMCLib/inc\xmc_usic.h ****  * \par<b>Description</b><br>
1102:C:/work_mari/XMC4800/UART/Libraries/XMCLib/inc\xmc_usic.h ****  * Writes data into the transmit buffer. \n\n
1103:C:/work_mari/XMC4800/UART/Libraries/XMCLib/inc\xmc_usic.h ****  * The data provided is placed in TBUF[0U].
1104:C:/work_mari/XMC4800/UART/Libraries/XMCLib/inc\xmc_usic.h ****  *
1105:C:/work_mari/XMC4800/UART/Libraries/XMCLib/inc\xmc_usic.h ****  *
1106:C:/work_mari/XMC4800/UART/Libraries/XMCLib/inc\xmc_usic.h ****  * \par<b>Related APIs:</b><BR>
1107:C:/work_mari/XMC4800/UART/Libraries/XMCLib/inc\xmc_usic.h ****  * XMC_USIC_CH_WriteToTBUFTCI() \n\n\n
1108:C:/work_mari/XMC4800/UART/Libraries/XMCLib/inc\xmc_usic.h ****  */
1109:C:/work_mari/XMC4800/UART/Libraries/XMCLib/inc\xmc_usic.h **** __STATIC_INLINE void XMC_USIC_CH_WriteToTBUF(XMC_USIC_CH_t *const channel, const uint16_t data)
1110:C:/work_mari/XMC4800/UART/Libraries/XMCLib/inc\xmc_usic.h **** {
1111:C:/work_mari/XMC4800/UART/Libraries/XMCLib/inc\xmc_usic.h ****   channel->TBUF[0U] = data;
1112:C:/work_mari/XMC4800/UART/Libraries/XMCLib/inc\xmc_usic.h **** }
1113:C:/work_mari/XMC4800/UART/Libraries/XMCLib/inc\xmc_usic.h **** 
1114:C:/work_mari/XMC4800/UART/Libraries/XMCLib/inc\xmc_usic.h **** /**
1115:C:/work_mari/XMC4800/UART/Libraries/XMCLib/inc\xmc_usic.h ****  * @param channel Pointer to USIC channel handler of type @ref XMC_USIC_CH_t \n
1116:C:/work_mari/XMC4800/UART/Libraries/XMCLib/inc\xmc_usic.h ****  * 				   \b Range: @ref XMC_USIC0_CH0, @ref XMC_USIC0_CH1 to @ref XMC_USIC2_CH1 based on device su
1117:C:/work_mari/XMC4800/UART/Libraries/XMCLib/inc\xmc_usic.h ****  * @param data Data to be transmitted.
1118:C:/work_mari/XMC4800/UART/Libraries/XMCLib/inc\xmc_usic.h ****  * @param transmit_control_information transmit control information to be configured while transmit
1119:C:/work_mari/XMC4800/UART/Libraries/XMCLib/inc\xmc_usic.h ****  * 			\b Range: minimum= 0, maximum= 31.
1120:C:/work_mari/XMC4800/UART/Libraries/XMCLib/inc\xmc_usic.h ****  * @return None
1121:C:/work_mari/XMC4800/UART/Libraries/XMCLib/inc\xmc_usic.h ****  *
1122:C:/work_mari/XMC4800/UART/Libraries/XMCLib/inc\xmc_usic.h ****  * \par<b>Description</b><br>
1123:C:/work_mari/XMC4800/UART/Libraries/XMCLib/inc\xmc_usic.h ****  * Writes data to the transmit buffer in a control mode. \n\n
1124:C:/work_mari/XMC4800/UART/Libraries/XMCLib/inc\xmc_usic.h ****  * When the respective control mode is enabled , this API can be used.
1125:C:/work_mari/XMC4800/UART/Libraries/XMCLib/inc\xmc_usic.h ****  *
1126:C:/work_mari/XMC4800/UART/Libraries/XMCLib/inc\xmc_usic.h ****  *
1127:C:/work_mari/XMC4800/UART/Libraries/XMCLib/inc\xmc_usic.h ****  * \par<b>Related APIs:</b><BR>
1128:C:/work_mari/XMC4800/UART/Libraries/XMCLib/inc\xmc_usic.h ****  * XMC_USIC_CH_WriteToTBUF() \n\n\n
1129:C:/work_mari/XMC4800/UART/Libraries/XMCLib/inc\xmc_usic.h ****  */
1130:C:/work_mari/XMC4800/UART/Libraries/XMCLib/inc\xmc_usic.h **** __STATIC_INLINE void XMC_USIC_CH_WriteToTBUFTCI(XMC_USIC_CH_t *const channel,
1131:C:/work_mari/XMC4800/UART/Libraries/XMCLib/inc\xmc_usic.h ****     const uint16_t data,
1132:C:/work_mari/XMC4800/UART/Libraries/XMCLib/inc\xmc_usic.h ****     const uint32_t transmit_control_information)
1133:C:/work_mari/XMC4800/UART/Libraries/XMCLib/inc\xmc_usic.h **** {
1134:C:/work_mari/XMC4800/UART/Libraries/XMCLib/inc\xmc_usic.h ****   channel->TBUF[transmit_control_information] = data;
1135:C:/work_mari/XMC4800/UART/Libraries/XMCLib/inc\xmc_usic.h **** }
1136:C:/work_mari/XMC4800/UART/Libraries/XMCLib/inc\xmc_usic.h **** 
1137:C:/work_mari/XMC4800/UART/Libraries/XMCLib/inc\xmc_usic.h **** /**
1138:C:/work_mari/XMC4800/UART/Libraries/XMCLib/inc\xmc_usic.h ****  * @param  channel Pointer to USIC channel handler of type @ref XMC_USIC_CH_t \n
1139:C:/work_mari/XMC4800/UART/Libraries/XMCLib/inc\xmc_usic.h ****  * 				   \b Range: @ref XMC_USIC0_CH0, @ref XMC_USIC0_CH1 to @ref XMC_USIC2_CH1 based on device su
1140:C:/work_mari/XMC4800/UART/Libraries/XMCLib/inc\xmc_usic.h ****  * @param  word_length Number of bits to be configured for a data word. \n
1141:C:/work_mari/XMC4800/UART/Libraries/XMCLib/inc\xmc_usic.h ****  * 					   \b Range: minimum= 1, maximum= 16. \n
1142:C:/work_mari/XMC4800/UART/Libraries/XMCLib/inc\xmc_usic.h ****  * 					   e.g: For word length of 8, \a word_length should be provided as 8.
1143:C:/work_mari/XMC4800/UART/Libraries/XMCLib/inc\xmc_usic.h ****  * @return None
1144:C:/work_mari/XMC4800/UART/Libraries/XMCLib/inc\xmc_usic.h ****  *
1145:C:/work_mari/XMC4800/UART/Libraries/XMCLib/inc\xmc_usic.h ****  * \par<b>Description</b><br>
1146:C:/work_mari/XMC4800/UART/Libraries/XMCLib/inc\xmc_usic.h ****  * Sets the data word length in number of bits. \n\n
1147:C:/work_mari/XMC4800/UART/Libraries/XMCLib/inc\xmc_usic.h ****  * Sets the number of bits to represent a data word. Frame length should be a multiple of word leng
1148:C:/work_mari/XMC4800/UART/Libraries/XMCLib/inc\xmc_usic.h ****  *
1149:C:/work_mari/XMC4800/UART/Libraries/XMCLib/inc\xmc_usic.h ****  * \par<b>Related APIs:</b><BR>
1150:C:/work_mari/XMC4800/UART/Libraries/XMCLib/inc\xmc_usic.h ****  * XMC_USIC_CH_SetFrameLength()\n\n\n
1151:C:/work_mari/XMC4800/UART/Libraries/XMCLib/inc\xmc_usic.h ****  */
1152:C:/work_mari/XMC4800/UART/Libraries/XMCLib/inc\xmc_usic.h **** __STATIC_INLINE void XMC_USIC_CH_SetWordLength(XMC_USIC_CH_t *const channel, const uint8_t word_len
1153:C:/work_mari/XMC4800/UART/Libraries/XMCLib/inc\xmc_usic.h **** {
1154:C:/work_mari/XMC4800/UART/Libraries/XMCLib/inc\xmc_usic.h ****   channel->SCTR = (uint32_t)(channel->SCTR & (~USIC_CH_SCTR_WLE_Msk)) |
1155:C:/work_mari/XMC4800/UART/Libraries/XMCLib/inc\xmc_usic.h ****                   (uint32_t)(((uint32_t)word_length - 1UL)  << USIC_CH_SCTR_WLE_Pos);
1156:C:/work_mari/XMC4800/UART/Libraries/XMCLib/inc\xmc_usic.h **** }
1157:C:/work_mari/XMC4800/UART/Libraries/XMCLib/inc\xmc_usic.h **** 
1158:C:/work_mari/XMC4800/UART/Libraries/XMCLib/inc\xmc_usic.h **** /**
1159:C:/work_mari/XMC4800/UART/Libraries/XMCLib/inc\xmc_usic.h ****  * @param  channel Pointer to USIC channel handler of type @ref XMC_USIC_CH_t \n
1160:C:/work_mari/XMC4800/UART/Libraries/XMCLib/inc\xmc_usic.h ****  *           \b Range: @ref XMC_USIC0_CH0, @ref XMC_USIC0_CH1 to @ref XMC_USIC2_CH1 based on device
1161:C:/work_mari/XMC4800/UART/Libraries/XMCLib/inc\xmc_usic.h ****  * @param  word_length Number of bits to be configured for a data word. \n
1162:C:/work_mari/XMC4800/UART/Libraries/XMCLib/inc\xmc_usic.h ****  *             \b Range: minimum= 1, maximum= 16. \n
1163:C:/work_mari/XMC4800/UART/Libraries/XMCLib/inc\xmc_usic.h ****  *             e.g: For word length of 8, \a word_length should be provided as 8.
1164:C:/work_mari/XMC4800/UART/Libraries/XMCLib/inc\xmc_usic.h ****  * @return None
1165:C:/work_mari/XMC4800/UART/Libraries/XMCLib/inc\xmc_usic.h ****  *
1166:C:/work_mari/XMC4800/UART/Libraries/XMCLib/inc\xmc_usic.h ****  * \par<b>Description</b><br>
1167:C:/work_mari/XMC4800/UART/Libraries/XMCLib/inc\xmc_usic.h ****  * Sets the data word length in number of bits. \n\n
1168:C:/work_mari/XMC4800/UART/Libraries/XMCLib/inc\xmc_usic.h ****  * Sets the number of bits to represent a data word. Frame length should be a multiple of word leng
1169:C:/work_mari/XMC4800/UART/Libraries/XMCLib/inc\xmc_usic.h ****  *
1170:C:/work_mari/XMC4800/UART/Libraries/XMCLib/inc\xmc_usic.h ****  * \par<b>Related APIs:</b><BR>
1171:C:/work_mari/XMC4800/UART/Libraries/XMCLib/inc\xmc_usic.h ****  * XMC_USIC_CH_SetFrameLength()\n\n\n
1172:C:/work_mari/XMC4800/UART/Libraries/XMCLib/inc\xmc_usic.h ****  */
1173:C:/work_mari/XMC4800/UART/Libraries/XMCLib/inc\xmc_usic.h **** __STATIC_INLINE void XMC_USIC_CH_SetShiftDirection(XMC_USIC_CH_t *const channel, const XMC_USIC_CH_
1174:C:/work_mari/XMC4800/UART/Libraries/XMCLib/inc\xmc_usic.h **** {
 143              	 .loc 1 1174 0
 144              	 .cfi_startproc
 145              	 
 146              	 
 147              	 
 148 0000 80B4     	 push {r7}
 149              	.LCFI12:
 150              	 .cfi_def_cfa_offset 4
 151              	 .cfi_offset 7,-4
 152 0002 83B0     	 sub sp,sp,#12
 153              	.LCFI13:
 154              	 .cfi_def_cfa_offset 16
 155 0004 00AF     	 add r7,sp,#0
 156              	.LCFI14:
 157              	 .cfi_def_cfa_register 7
 158 0006 7860     	 str r0,[r7,#4]
 159 0008 0B46     	 mov r3,r1
 160 000a FB70     	 strb r3,[r7,#3]
1175:C:/work_mari/XMC4800/UART/Libraries/XMCLib/inc\xmc_usic.h ****   channel->SCTR = (uint32_t)(channel->SCTR & (~USIC_CH_SCTR_SDIR_Msk)) | (uint32_t)shift_direction;
 161              	 .loc 1 1175 0
 162 000c 7B68     	 ldr r3,[r7,#4]
 163 000e 5B6B     	 ldr r3,[r3,#52]
 164 0010 23F00102 	 bic r2,r3,#1
 165 0014 FB78     	 ldrb r3,[r7,#3]
 166 0016 1A43     	 orrs r2,r2,r3
 167 0018 7B68     	 ldr r3,[r7,#4]
 168 001a 5A63     	 str r2,[r3,#52]
1176:C:/work_mari/XMC4800/UART/Libraries/XMCLib/inc\xmc_usic.h **** }
 169              	 .loc 1 1176 0
 170 001c 0C37     	 adds r7,r7,#12
 171              	.LCFI15:
 172              	 .cfi_def_cfa_offset 4
 173 001e BD46     	 mov sp,r7
 174              	.LCFI16:
 175              	 .cfi_def_cfa_register 13
 176              	 
 177 0020 5DF8047B 	 ldr r7,[sp],#4
 178              	.LCFI17:
 179              	 .cfi_restore 7
 180              	 .cfi_def_cfa_offset 0
 181 0024 7047     	 bx lr
 182              	 .cfi_endproc
 183              	.LFE203:
 185 0026 00BF     	 .section .text.XMC_USIC_CH_SetDataOutputMode,"ax",%progbits
 186              	 .align 2
 187              	 .thumb
 188              	 .thumb_func
 190              	XMC_USIC_CH_SetDataOutputMode:
 191              	.LFB212:
1177:C:/work_mari/XMC4800/UART/Libraries/XMCLib/inc\xmc_usic.h **** 
1178:C:/work_mari/XMC4800/UART/Libraries/XMCLib/inc\xmc_usic.h **** 
1179:C:/work_mari/XMC4800/UART/Libraries/XMCLib/inc\xmc_usic.h **** /**
1180:C:/work_mari/XMC4800/UART/Libraries/XMCLib/inc\xmc_usic.h ****  * @param  channel Pointer to USIC channel handler of type @ref XMC_USIC_CH_t \n
1181:C:/work_mari/XMC4800/UART/Libraries/XMCLib/inc\xmc_usic.h ****  *           \b Range: @ref XMC_USIC0_CH0, @ref XMC_USIC0_CH1 to @ref XMC_USIC2_CH1 based on device
1182:C:/work_mari/XMC4800/UART/Libraries/XMCLib/inc\xmc_usic.h ****  * @return Captured counter value
1183:C:/work_mari/XMC4800/UART/Libraries/XMCLib/inc\xmc_usic.h ****  *
1184:C:/work_mari/XMC4800/UART/Libraries/XMCLib/inc\xmc_usic.h ****  *
1185:C:/work_mari/XMC4800/UART/Libraries/XMCLib/inc\xmc_usic.h ****  * \par<b>Description</b><br>
1186:C:/work_mari/XMC4800/UART/Libraries/XMCLib/inc\xmc_usic.h ****  * The value of the counter is captured if one of the trigger signals DX0T or DX1T are activated by
1187:C:/work_mari/XMC4800/UART/Libraries/XMCLib/inc\xmc_usic.h ****  */
1188:C:/work_mari/XMC4800/UART/Libraries/XMCLib/inc\xmc_usic.h **** __STATIC_INLINE uint32_t XMC_USIC_CH_GetCaptureTimerValue(const XMC_USIC_CH_t *const channel)
1189:C:/work_mari/XMC4800/UART/Libraries/XMCLib/inc\xmc_usic.h **** {
1190:C:/work_mari/XMC4800/UART/Libraries/XMCLib/inc\xmc_usic.h ****   return channel->CMTR;
1191:C:/work_mari/XMC4800/UART/Libraries/XMCLib/inc\xmc_usic.h **** }
1192:C:/work_mari/XMC4800/UART/Libraries/XMCLib/inc\xmc_usic.h **** 
1193:C:/work_mari/XMC4800/UART/Libraries/XMCLib/inc\xmc_usic.h **** /**
1194:C:/work_mari/XMC4800/UART/Libraries/XMCLib/inc\xmc_usic.h ****  * @param  channel Pointer to USIC channel handler of type @ref XMC_USIC_CH_t \n
1195:C:/work_mari/XMC4800/UART/Libraries/XMCLib/inc\xmc_usic.h ****  *           \b Range: @ref XMC_USIC0_CH0, @ref XMC_USIC0_CH1 to @ref XMC_USIC2_CH1 based on device
1196:C:/work_mari/XMC4800/UART/Libraries/XMCLib/inc\xmc_usic.h ****  * @param  mode divider mode ::XMC_USIC_CH_BRG_CLOCK_DIVIDER_MODE_t \n
1197:C:/work_mari/XMC4800/UART/Libraries/XMCLib/inc\xmc_usic.h ****  * @param  step divider \n
1198:C:/work_mari/XMC4800/UART/Libraries/XMCLib/inc\xmc_usic.h ****  *             \b XMC_USIC_CH_BRG_CLOCK_DIVIDER_MODE_NORMAL resulting divider = 1023 - step \n
1199:C:/work_mari/XMC4800/UART/Libraries/XMCLib/inc\xmc_usic.h ****  *             \b XMC_USIC_CH_BRG_CLOCK_DIVIDER_MODE_FRACTIONAL resulting divider = 1023 / step \n
1200:C:/work_mari/XMC4800/UART/Libraries/XMCLib/inc\xmc_usic.h ****  *
1201:C:/work_mari/XMC4800/UART/Libraries/XMCLib/inc\xmc_usic.h ****  * @return None
1202:C:/work_mari/XMC4800/UART/Libraries/XMCLib/inc\xmc_usic.h ****  *
1203:C:/work_mari/XMC4800/UART/Libraries/XMCLib/inc\xmc_usic.h ****  * \par<b>Description</b><br>
1204:C:/work_mari/XMC4800/UART/Libraries/XMCLib/inc\xmc_usic.h ****  * The fractional divider generates its output frequency fFD by either dividing the input frequency
1205:C:/work_mari/XMC4800/UART/Libraries/XMCLib/inc\xmc_usic.h ****  *
1206:C:/work_mari/XMC4800/UART/Libraries/XMCLib/inc\xmc_usic.h ****  */
1207:C:/work_mari/XMC4800/UART/Libraries/XMCLib/inc\xmc_usic.h **** __STATIC_INLINE void XMC_USIC_CH_SetFractionalDivider(XMC_USIC_CH_t *const channel, const XMC_USIC_
1208:C:/work_mari/XMC4800/UART/Libraries/XMCLib/inc\xmc_usic.h **** {
1209:C:/work_mari/XMC4800/UART/Libraries/XMCLib/inc\xmc_usic.h ****   channel->FDR = mode | step;
1210:C:/work_mari/XMC4800/UART/Libraries/XMCLib/inc\xmc_usic.h **** }
1211:C:/work_mari/XMC4800/UART/Libraries/XMCLib/inc\xmc_usic.h **** 
1212:C:/work_mari/XMC4800/UART/Libraries/XMCLib/inc\xmc_usic.h **** /**
1213:C:/work_mari/XMC4800/UART/Libraries/XMCLib/inc\xmc_usic.h ****  * @param  channel Pointer to USIC channel handler of type @ref XMC_USIC_CH_t \n
1214:C:/work_mari/XMC4800/UART/Libraries/XMCLib/inc\xmc_usic.h ****  * 				   \b Range: @ref XMC_USIC0_CH0, @ref XMC_USIC0_CH1 to @ref XMC_USIC2_CH1 based on device su
1215:C:/work_mari/XMC4800/UART/Libraries/XMCLib/inc\xmc_usic.h ****  * @param  frame_length Number of bits in a frame. \n
1216:C:/work_mari/XMC4800/UART/Libraries/XMCLib/inc\xmc_usic.h ****  * 						\b Range: minimum= 1, maximum= 0x3f. The maximum value for fixed frame size is 0x3f. \n
1217:C:/work_mari/XMC4800/UART/Libraries/XMCLib/inc\xmc_usic.h ****  * 						e.g: For a frame length of 16, \a frame_length should be provided as 16.
1218:C:/work_mari/XMC4800/UART/Libraries/XMCLib/inc\xmc_usic.h ****  * @return None
1219:C:/work_mari/XMC4800/UART/Libraries/XMCLib/inc\xmc_usic.h ****  *
1220:C:/work_mari/XMC4800/UART/Libraries/XMCLib/inc\xmc_usic.h ****  * \par<b>Description</b><br>
1221:C:/work_mari/XMC4800/UART/Libraries/XMCLib/inc\xmc_usic.h ****  * Define the data frame length.\n\n
1222:C:/work_mari/XMC4800/UART/Libraries/XMCLib/inc\xmc_usic.h ****  * Set the number of bits to be serially transmitted in a frame.
1223:C:/work_mari/XMC4800/UART/Libraries/XMCLib/inc\xmc_usic.h ****  * The frame length should be multiples of word length. If the value is set to 0x40, the frame leng
1224:C:/work_mari/XMC4800/UART/Libraries/XMCLib/inc\xmc_usic.h ****  * has to be controlled explicitly.
1225:C:/work_mari/XMC4800/UART/Libraries/XMCLib/inc\xmc_usic.h ****  *
1226:C:/work_mari/XMC4800/UART/Libraries/XMCLib/inc\xmc_usic.h ****  * \par<b>Related APIs:</b><BR>
1227:C:/work_mari/XMC4800/UART/Libraries/XMCLib/inc\xmc_usic.h ****  * XMC_USIC_CH_SetWordLength(), XMC_USIC_CH_EnableFrameLengthControl() \n\n\n
1228:C:/work_mari/XMC4800/UART/Libraries/XMCLib/inc\xmc_usic.h ****  */
1229:C:/work_mari/XMC4800/UART/Libraries/XMCLib/inc\xmc_usic.h **** __STATIC_INLINE void XMC_USIC_CH_SetFrameLength(XMC_USIC_CH_t *const channel, const uint8_t frame_l
1230:C:/work_mari/XMC4800/UART/Libraries/XMCLib/inc\xmc_usic.h **** {
1231:C:/work_mari/XMC4800/UART/Libraries/XMCLib/inc\xmc_usic.h ****   channel->SCTR = (uint32_t)(channel->SCTR & (~USIC_CH_SCTR_FLE_Msk)) |
1232:C:/work_mari/XMC4800/UART/Libraries/XMCLib/inc\xmc_usic.h ****                   (((uint32_t)frame_length - 0x1U)  << USIC_CH_SCTR_FLE_Pos);
1233:C:/work_mari/XMC4800/UART/Libraries/XMCLib/inc\xmc_usic.h **** }
1234:C:/work_mari/XMC4800/UART/Libraries/XMCLib/inc\xmc_usic.h **** 
1235:C:/work_mari/XMC4800/UART/Libraries/XMCLib/inc\xmc_usic.h **** /**
1236:C:/work_mari/XMC4800/UART/Libraries/XMCLib/inc\xmc_usic.h ****  * @param channel Pointer to USIC channel handler of type @ref XMC_USIC_CH_t \n
1237:C:/work_mari/XMC4800/UART/Libraries/XMCLib/inc\xmc_usic.h ****  * 				   \b Range: @ref XMC_USIC0_CH0, @ref XMC_USIC0_CH1 to @ref XMC_USIC2_CH1 based on device su
1238:C:/work_mari/XMC4800/UART/Libraries/XMCLib/inc\xmc_usic.h ****  * @param event Bit mask of the channel events to be enabled. Use @ref XMC_USIC_CH_EVENT_t for the 
1239:C:/work_mari/XMC4800/UART/Libraries/XMCLib/inc\xmc_usic.h ****  * 				\b Range: @ref XMC_USIC_CH_EVENT_RECEIVE_START, @ref XMC_USIC_CH_EVENT_DATA_LOST etc. Multip
1240:C:/work_mari/XMC4800/UART/Libraries/XMCLib/inc\xmc_usic.h ****  * 				can be combined using \a OR operation.
1241:C:/work_mari/XMC4800/UART/Libraries/XMCLib/inc\xmc_usic.h ****  * @return None
1242:C:/work_mari/XMC4800/UART/Libraries/XMCLib/inc\xmc_usic.h ****  *
1243:C:/work_mari/XMC4800/UART/Libraries/XMCLib/inc\xmc_usic.h ****  * \par<b>Description</b><br>
1244:C:/work_mari/XMC4800/UART/Libraries/XMCLib/inc\xmc_usic.h ****  * Enable the channel interrupt events.\n\n
1245:C:/work_mari/XMC4800/UART/Libraries/XMCLib/inc\xmc_usic.h ****  * Common channel events related to serial communication can be configured using this API.
1246:C:/work_mari/XMC4800/UART/Libraries/XMCLib/inc\xmc_usic.h ****  * Multiple events can be combined using the bitwise OR operation and configured in one function ca
1247:C:/work_mari/XMC4800/UART/Libraries/XMCLib/inc\xmc_usic.h ****  * XMC_USIC_CH_EVENT_t enumerates multiple protocol event bitmasks. These enumerations can be used 
1248:C:/work_mari/XMC4800/UART/Libraries/XMCLib/inc\xmc_usic.h ****  *
1249:C:/work_mari/XMC4800/UART/Libraries/XMCLib/inc\xmc_usic.h ****  * \par<b>Related APIs:</b><BR>
1250:C:/work_mari/XMC4800/UART/Libraries/XMCLib/inc\xmc_usic.h ****  * XMC_USIC_CH_DisableEvent(), XMC_USIC_CH_SetInterruptNodePointer() \n\n\n
1251:C:/work_mari/XMC4800/UART/Libraries/XMCLib/inc\xmc_usic.h ****  */
1252:C:/work_mari/XMC4800/UART/Libraries/XMCLib/inc\xmc_usic.h **** __STATIC_INLINE void XMC_USIC_CH_EnableEvent(XMC_USIC_CH_t *const channel, const uint32_t event)
1253:C:/work_mari/XMC4800/UART/Libraries/XMCLib/inc\xmc_usic.h **** {
1254:C:/work_mari/XMC4800/UART/Libraries/XMCLib/inc\xmc_usic.h ****   channel->CCR |= event;
1255:C:/work_mari/XMC4800/UART/Libraries/XMCLib/inc\xmc_usic.h **** }
1256:C:/work_mari/XMC4800/UART/Libraries/XMCLib/inc\xmc_usic.h **** 
1257:C:/work_mari/XMC4800/UART/Libraries/XMCLib/inc\xmc_usic.h **** /**
1258:C:/work_mari/XMC4800/UART/Libraries/XMCLib/inc\xmc_usic.h ****  * @param channel Pointer to USIC channel handler of type @ref XMC_USIC_CH_t \n
1259:C:/work_mari/XMC4800/UART/Libraries/XMCLib/inc\xmc_usic.h ****  * 				  \b Range: @ref XMC_USIC0_CH0, @ref XMC_USIC0_CH1 to @ref XMC_USIC2_CH1 based on device sup
1260:C:/work_mari/XMC4800/UART/Libraries/XMCLib/inc\xmc_usic.h ****  * @param event Bit mask of the channel events to be disabled. Use @ref XMC_USIC_CH_EVENT_t for the
1261:C:/work_mari/XMC4800/UART/Libraries/XMCLib/inc\xmc_usic.h ****  * 				\b Range: @ref XMC_USIC_CH_EVENT_RECEIVE_START, @ref XMC_USIC_CH_EVENT_DATA_LOST etc. Multip
1262:C:/work_mari/XMC4800/UART/Libraries/XMCLib/inc\xmc_usic.h ****  * 				can be combined using \a OR operation.
1263:C:/work_mari/XMC4800/UART/Libraries/XMCLib/inc\xmc_usic.h ****  * @return None
1264:C:/work_mari/XMC4800/UART/Libraries/XMCLib/inc\xmc_usic.h ****  *
1265:C:/work_mari/XMC4800/UART/Libraries/XMCLib/inc\xmc_usic.h ****  * \par<b>Description</b><br>
1266:C:/work_mari/XMC4800/UART/Libraries/XMCLib/inc\xmc_usic.h ****  * Disable the channel interrupt events. \n\n
1267:C:/work_mari/XMC4800/UART/Libraries/XMCLib/inc\xmc_usic.h ****  * Multiple events can be combined using the bitwise OR operation and configured in one function ca
1268:C:/work_mari/XMC4800/UART/Libraries/XMCLib/inc\xmc_usic.h ****  * XMC_USIC_CH_EVENT_t enumerates multiple protocol event bitmasks. These enumerations can be used 
1269:C:/work_mari/XMC4800/UART/Libraries/XMCLib/inc\xmc_usic.h ****  *
1270:C:/work_mari/XMC4800/UART/Libraries/XMCLib/inc\xmc_usic.h ****  * \par<b>Related APIs:</b><BR>
1271:C:/work_mari/XMC4800/UART/Libraries/XMCLib/inc\xmc_usic.h ****  * XMC_USIC_CH_EnableEvent(), XMC_USIC_CH_SetInterruptNodePointer() \n\n\n
1272:C:/work_mari/XMC4800/UART/Libraries/XMCLib/inc\xmc_usic.h **** */
1273:C:/work_mari/XMC4800/UART/Libraries/XMCLib/inc\xmc_usic.h **** __STATIC_INLINE void XMC_USIC_CH_DisableEvent(XMC_USIC_CH_t *const channel, const uint32_t event)
1274:C:/work_mari/XMC4800/UART/Libraries/XMCLib/inc\xmc_usic.h **** {
1275:C:/work_mari/XMC4800/UART/Libraries/XMCLib/inc\xmc_usic.h ****   channel->CCR &= (uint32_t)~event;
1276:C:/work_mari/XMC4800/UART/Libraries/XMCLib/inc\xmc_usic.h **** }
1277:C:/work_mari/XMC4800/UART/Libraries/XMCLib/inc\xmc_usic.h **** 
1278:C:/work_mari/XMC4800/UART/Libraries/XMCLib/inc\xmc_usic.h **** /**
1279:C:/work_mari/XMC4800/UART/Libraries/XMCLib/inc\xmc_usic.h ****  * @param channel Pointer to USIC channel handler of type @ref XMC_USIC_CH_t \n
1280:C:/work_mari/XMC4800/UART/Libraries/XMCLib/inc\xmc_usic.h ****  * 				  \b Range: @ref XMC_USIC0_CH0, @ref XMC_USIC0_CH1 to @ref XMC_USIC2_CH1 based on device sup
1281:C:/work_mari/XMC4800/UART/Libraries/XMCLib/inc\xmc_usic.h ****  * @param  interrupt_node Interrupt node pointer to be configured. \n
1282:C:/work_mari/XMC4800/UART/Libraries/XMCLib/inc\xmc_usic.h ****  * 						  \b Range: @ref XMC_USIC_CH_INTERRUPT_NODE_POINTER_TRANSMIT_SHIFT,
1283:C:/work_mari/XMC4800/UART/Libraries/XMCLib/inc\xmc_usic.h ****  * 						  			@ref XMC_USIC_CH_INTERRUPT_NODE_POINTER_TRANSMIT_BUFFER etc.
1284:C:/work_mari/XMC4800/UART/Libraries/XMCLib/inc\xmc_usic.h ****  * @param service_request Service request number.\n
1285:C:/work_mari/XMC4800/UART/Libraries/XMCLib/inc\xmc_usic.h ****  * 						  \b Range: 0 to 5.
1286:C:/work_mari/XMC4800/UART/Libraries/XMCLib/inc\xmc_usic.h ****  * @return None
1287:C:/work_mari/XMC4800/UART/Libraries/XMCLib/inc\xmc_usic.h ****  *
1288:C:/work_mari/XMC4800/UART/Libraries/XMCLib/inc\xmc_usic.h ****  * \par<b>Description</b><br>
1289:C:/work_mari/XMC4800/UART/Libraries/XMCLib/inc\xmc_usic.h ****  * Sets the interrupt node for USIC channel events. \n\n
1290:C:/work_mari/XMC4800/UART/Libraries/XMCLib/inc\xmc_usic.h ****  * For an event to generate interrupt, node pointer should be configured with service request(SR0, 
1291:C:/work_mari/XMC4800/UART/Libraries/XMCLib/inc\xmc_usic.h ****  * The NVIC node gets linked to the interrupt event by doing so.<br>
1292:C:/work_mari/XMC4800/UART/Libraries/XMCLib/inc\xmc_usic.h ****  * Note: NVIC node should be separately enabled to generate the interrupt.
1293:C:/work_mari/XMC4800/UART/Libraries/XMCLib/inc\xmc_usic.h ****  *
1294:C:/work_mari/XMC4800/UART/Libraries/XMCLib/inc\xmc_usic.h ****  * \par<b>Related APIs:</b><BR>
1295:C:/work_mari/XMC4800/UART/Libraries/XMCLib/inc\xmc_usic.h ****  * XMC_USIC_CH_EnableEvent() \n\n\n
1296:C:/work_mari/XMC4800/UART/Libraries/XMCLib/inc\xmc_usic.h ****  */
1297:C:/work_mari/XMC4800/UART/Libraries/XMCLib/inc\xmc_usic.h **** void XMC_USIC_CH_SetInterruptNodePointer(XMC_USIC_CH_t *const channel,
1298:C:/work_mari/XMC4800/UART/Libraries/XMCLib/inc\xmc_usic.h ****     const XMC_USIC_CH_INTERRUPT_NODE_POINTER_t interrupt_node,
1299:C:/work_mari/XMC4800/UART/Libraries/XMCLib/inc\xmc_usic.h ****     const uint32_t service_request);
1300:C:/work_mari/XMC4800/UART/Libraries/XMCLib/inc\xmc_usic.h **** 
1301:C:/work_mari/XMC4800/UART/Libraries/XMCLib/inc\xmc_usic.h **** /**
1302:C:/work_mari/XMC4800/UART/Libraries/XMCLib/inc\xmc_usic.h ****  * @param  channel Pointer to USIC channel handler of type @ref XMC_USIC_CH_t \n
1303:C:/work_mari/XMC4800/UART/Libraries/XMCLib/inc\xmc_usic.h ****  * 				   \b Range: @ref XMC_USIC0_CH0, @ref XMC_USIC0_CH1 to @ref XMC_USIC2_CH1 based on device su
1304:C:/work_mari/XMC4800/UART/Libraries/XMCLib/inc\xmc_usic.h ****  * @return Stataus @ref XMC_USIC_CH_TBUF_STATUS_IDLE if transmit buffer is free,
1305:C:/work_mari/XMC4800/UART/Libraries/XMCLib/inc\xmc_usic.h ****  *                 @ref XMC_USIC_CH_TBUF_STATUS_BUSY if transmit buffer is busy.
1306:C:/work_mari/XMC4800/UART/Libraries/XMCLib/inc\xmc_usic.h ****  *
1307:C:/work_mari/XMC4800/UART/Libraries/XMCLib/inc\xmc_usic.h ****  * \par<b>Description</b><br>
1308:C:/work_mari/XMC4800/UART/Libraries/XMCLib/inc\xmc_usic.h ****  * Gets transmit buffer status. \n\n
1309:C:/work_mari/XMC4800/UART/Libraries/XMCLib/inc\xmc_usic.h ****  * Status indicates whether the transmit buffer is free, or busy transmitting data.
1310:C:/work_mari/XMC4800/UART/Libraries/XMCLib/inc\xmc_usic.h ****  * The status depends on the value of TDV flag in TCSR register.
1311:C:/work_mari/XMC4800/UART/Libraries/XMCLib/inc\xmc_usic.h ****  * This status can be used while transmitting data. Transmit data when the transmit buffer
1312:C:/work_mari/XMC4800/UART/Libraries/XMCLib/inc\xmc_usic.h ****  * status is @ref XMC_USIC_CH_TBUF_STATUS_IDLE.
1313:C:/work_mari/XMC4800/UART/Libraries/XMCLib/inc\xmc_usic.h ****  *
1314:C:/work_mari/XMC4800/UART/Libraries/XMCLib/inc\xmc_usic.h ****  * \par<b>Related APIs:</b><BR>
1315:C:/work_mari/XMC4800/UART/Libraries/XMCLib/inc\xmc_usic.h ****  * XMC_USIC_CH_SetDataOutputMode() \n\n\n
1316:C:/work_mari/XMC4800/UART/Libraries/XMCLib/inc\xmc_usic.h ****  */
1317:C:/work_mari/XMC4800/UART/Libraries/XMCLib/inc\xmc_usic.h **** __STATIC_INLINE XMC_USIC_CH_TBUF_STATUS_t XMC_USIC_CH_GetTransmitBufferStatus(XMC_USIC_CH_t *const 
1318:C:/work_mari/XMC4800/UART/Libraries/XMCLib/inc\xmc_usic.h **** {
1319:C:/work_mari/XMC4800/UART/Libraries/XMCLib/inc\xmc_usic.h ****   return (XMC_USIC_CH_TBUF_STATUS_t)(channel->TCSR & USIC_CH_TCSR_TDV_Msk);
1320:C:/work_mari/XMC4800/UART/Libraries/XMCLib/inc\xmc_usic.h **** }
1321:C:/work_mari/XMC4800/UART/Libraries/XMCLib/inc\xmc_usic.h **** 
1322:C:/work_mari/XMC4800/UART/Libraries/XMCLib/inc\xmc_usic.h **** /**
1323:C:/work_mari/XMC4800/UART/Libraries/XMCLib/inc\xmc_usic.h ****  * @brief API to get receive buffer status
1324:C:/work_mari/XMC4800/UART/Libraries/XMCLib/inc\xmc_usic.h ****  * @param  channel Pointer to USIC channel handler of type @ref XMC_USIC_CH_t \n
1325:C:/work_mari/XMC4800/UART/Libraries/XMCLib/inc\xmc_usic.h ****  * 				   \b Range: @ref XMC_USIC0_CH0, @ref XMC_USIC0_CH1 to @ref XMC_USIC2_CH1 based on device su
1326:C:/work_mari/XMC4800/UART/Libraries/XMCLib/inc\xmc_usic.h ****  * @return Status of data validity check for RBUF0 and RBUF1. \n
1327:C:/work_mari/XMC4800/UART/Libraries/XMCLib/inc\xmc_usic.h ****  * 		   Returned value should be masked with RDV0 and RDV1 bits to know the status. \n
1328:C:/work_mari/XMC4800/UART/Libraries/XMCLib/inc\xmc_usic.h ****  * 		   \b Range: @ref XMC_USIC_CH_RBUF_STATUS_DATA_VALID0, @ref XMC_USIC_CH_RBUF_STATUS_DATA_VALID
1329:C:/work_mari/XMC4800/UART/Libraries/XMCLib/inc\xmc_usic.h ****  *
1330:C:/work_mari/XMC4800/UART/Libraries/XMCLib/inc\xmc_usic.h ****  * \par<b>Description</b><br>
1331:C:/work_mari/XMC4800/UART/Libraries/XMCLib/inc\xmc_usic.h ****  * Checks if RBUF0 and RBUF1 have valid unread data. \n\n
1332:C:/work_mari/XMC4800/UART/Libraries/XMCLib/inc\xmc_usic.h ****  * It checks the bits RDV0 and RDV1 of the RBUFSR register.
1333:C:/work_mari/XMC4800/UART/Libraries/XMCLib/inc\xmc_usic.h ****  * Returns the value of RBUFSR masked with bitmasks of RDV0 and RDV1.
1334:C:/work_mari/XMC4800/UART/Libraries/XMCLib/inc\xmc_usic.h ****  * It can be used to decide whether 2bytes has to be read from RBUF or 1 byte.
1335:C:/work_mari/XMC4800/UART/Libraries/XMCLib/inc\xmc_usic.h ****  * If both bitmasks XMC_USIC_CH_RBUF_STATUS_DATA_VALID0 and XMC_USIC_CH_RBUF_STATUS_DATA_VALID1
1336:C:/work_mari/XMC4800/UART/Libraries/XMCLib/inc\xmc_usic.h ****  * are set, then 2 bytes can be read from RBUF. If only either of them is set, then only one byte
1337:C:/work_mari/XMC4800/UART/Libraries/XMCLib/inc\xmc_usic.h ****  * can be read from RBUF.
1338:C:/work_mari/XMC4800/UART/Libraries/XMCLib/inc\xmc_usic.h ****  * \par<b>Related APIs:</b><BR>
1339:C:/work_mari/XMC4800/UART/Libraries/XMCLib/inc\xmc_usic.h ****  * XMC_USIC_CH_GetTransmitBufferStatus() \n\n\n
1340:C:/work_mari/XMC4800/UART/Libraries/XMCLib/inc\xmc_usic.h ****  */
1341:C:/work_mari/XMC4800/UART/Libraries/XMCLib/inc\xmc_usic.h **** __STATIC_INLINE uint32_t XMC_USIC_CH_GetReceiveBufferStatus(XMC_USIC_CH_t *const channel)
1342:C:/work_mari/XMC4800/UART/Libraries/XMCLib/inc\xmc_usic.h **** {
1343:C:/work_mari/XMC4800/UART/Libraries/XMCLib/inc\xmc_usic.h ****   return ((uint32_t) (channel->RBUFSR & (USIC_CH_RBUFSR_RDV0_Msk | USIC_CH_RBUFSR_RDV1_Msk)));
1344:C:/work_mari/XMC4800/UART/Libraries/XMCLib/inc\xmc_usic.h **** }
1345:C:/work_mari/XMC4800/UART/Libraries/XMCLib/inc\xmc_usic.h **** 
1346:C:/work_mari/XMC4800/UART/Libraries/XMCLib/inc\xmc_usic.h **** 
1347:C:/work_mari/XMC4800/UART/Libraries/XMCLib/inc\xmc_usic.h **** /**
1348:C:/work_mari/XMC4800/UART/Libraries/XMCLib/inc\xmc_usic.h ****  * @param  channel Pointer to USIC channel handler of type @ref XMC_USIC_CH_t \n
1349:C:/work_mari/XMC4800/UART/Libraries/XMCLib/inc\xmc_usic.h ****  * 				   \b Range: @ref XMC_USIC0_CH0, @ref XMC_USIC0_CH1 to @ref XMC_USIC2_CH1 based on device su
1350:C:/work_mari/XMC4800/UART/Libraries/XMCLib/inc\xmc_usic.h ****  * @param  start_transmision_mode Transmission mode to be enabled. \n
1351:C:/work_mari/XMC4800/UART/Libraries/XMCLib/inc\xmc_usic.h ****  * 								\b Range: @ref XMC_USIC_CH_START_TRANSMISION_DISABLED,
1352:C:/work_mari/XMC4800/UART/Libraries/XMCLib/inc\xmc_usic.h ****  * 								@ref XMC_USIC_CH_START_TRANSMISION_ON_TDV, @ref XMC_USIC_CH_START_TRANSMISION_ON_TDV_DX2
1353:C:/work_mari/XMC4800/UART/Libraries/XMCLib/inc\xmc_usic.h ****  * 								@ref XMC_USIC_CH_START_TRANSMISION_ON_TDV_DX2S_1
1354:C:/work_mari/XMC4800/UART/Libraries/XMCLib/inc\xmc_usic.h ****  *
1355:C:/work_mari/XMC4800/UART/Libraries/XMCLib/inc\xmc_usic.h ****  * @return None
1356:C:/work_mari/XMC4800/UART/Libraries/XMCLib/inc\xmc_usic.h ****  *
1357:C:/work_mari/XMC4800/UART/Libraries/XMCLib/inc\xmc_usic.h ****  * \par<b>Description</b><br>
1358:C:/work_mari/XMC4800/UART/Libraries/XMCLib/inc\xmc_usic.h ****  * Configures data transmission. \n\n
1359:C:/work_mari/XMC4800/UART/Libraries/XMCLib/inc\xmc_usic.h ****  * The configuration affects the data shifted on the DOUT0 pin.
1360:C:/work_mari/XMC4800/UART/Libraries/XMCLib/inc\xmc_usic.h ****  *
1361:C:/work_mari/XMC4800/UART/Libraries/XMCLib/inc\xmc_usic.h ****  * \par<b>Related APIs:</b><BR>
1362:C:/work_mari/XMC4800/UART/Libraries/XMCLib/inc\xmc_usic.h ****  * XMC_USIC_CH_GetTransmitBufferStatus(), XMC_USIC_CH_SetDataOutputMode() \n\n\n
1363:C:/work_mari/XMC4800/UART/Libraries/XMCLib/inc\xmc_usic.h ****  */
1364:C:/work_mari/XMC4800/UART/Libraries/XMCLib/inc\xmc_usic.h **** __STATIC_INLINE void XMC_USIC_CH_SetStartTransmisionMode(XMC_USIC_CH_t *const channel,
1365:C:/work_mari/XMC4800/UART/Libraries/XMCLib/inc\xmc_usic.h ****     const XMC_USIC_CH_START_TRANSMISION_MODE_t start_transmision_mode)
1366:C:/work_mari/XMC4800/UART/Libraries/XMCLib/inc\xmc_usic.h **** {
1367:C:/work_mari/XMC4800/UART/Libraries/XMCLib/inc\xmc_usic.h ****   channel->TCSR = (uint32_t)(channel->TCSR & (~USIC_CH_TCSR_TDEN_Msk)) | (uint32_t)start_transmisio
1368:C:/work_mari/XMC4800/UART/Libraries/XMCLib/inc\xmc_usic.h **** }
1369:C:/work_mari/XMC4800/UART/Libraries/XMCLib/inc\xmc_usic.h **** 
1370:C:/work_mari/XMC4800/UART/Libraries/XMCLib/inc\xmc_usic.h **** 
1371:C:/work_mari/XMC4800/UART/Libraries/XMCLib/inc\xmc_usic.h **** /**
1372:C:/work_mari/XMC4800/UART/Libraries/XMCLib/inc\xmc_usic.h ****  * @param  channel Pointer to USIC channel handler of type @ref XMC_USIC_CH_t \n
1373:C:/work_mari/XMC4800/UART/Libraries/XMCLib/inc\xmc_usic.h ****  * 				   \b Range: @ref XMC_USIC0_CH0, @ref XMC_USIC0_CH1 to @ref XMC_USIC2_CH1 based on device su
1374:C:/work_mari/XMC4800/UART/Libraries/XMCLib/inc\xmc_usic.h ****  * @param  data_output_mode  Data output mode. \n
1375:C:/work_mari/XMC4800/UART/Libraries/XMCLib/inc\xmc_usic.h ****  * 			\b Range: @ref XMC_USIC_CH_DATA_OUTPUT_MODE_NORMAL, @ref XMC_USIC_CH_DATA_OUTPUT_MODE_INVERTE
1376:C:/work_mari/XMC4800/UART/Libraries/XMCLib/inc\xmc_usic.h ****  * @return None
1377:C:/work_mari/XMC4800/UART/Libraries/XMCLib/inc\xmc_usic.h ****  *
1378:C:/work_mari/XMC4800/UART/Libraries/XMCLib/inc\xmc_usic.h ****  * \par<b>Description</b><br>
1379:C:/work_mari/XMC4800/UART/Libraries/XMCLib/inc\xmc_usic.h ****  * Configures the mode for data output. \n\n
1380:C:/work_mari/XMC4800/UART/Libraries/XMCLib/inc\xmc_usic.h ****  * USIC channel can be configured to shift inverted data or direct data based on the input to the A
1381:C:/work_mari/XMC4800/UART/Libraries/XMCLib/inc\xmc_usic.h ****  *
1382:C:/work_mari/XMC4800/UART/Libraries/XMCLib/inc\xmc_usic.h ****  * \par<b>Related APIs:</b><BR>
1383:C:/work_mari/XMC4800/UART/Libraries/XMCLib/inc\xmc_usic.h ****  * XMC_USIC_CH_SetStartTransmisionMode() \n\n\n
1384:C:/work_mari/XMC4800/UART/Libraries/XMCLib/inc\xmc_usic.h ****  */
1385:C:/work_mari/XMC4800/UART/Libraries/XMCLib/inc\xmc_usic.h **** __STATIC_INLINE void XMC_USIC_CH_SetDataOutputMode(XMC_USIC_CH_t *const channel,
1386:C:/work_mari/XMC4800/UART/Libraries/XMCLib/inc\xmc_usic.h ****     const XMC_USIC_CH_DATA_OUTPUT_MODE_t data_output_mode)
1387:C:/work_mari/XMC4800/UART/Libraries/XMCLib/inc\xmc_usic.h **** {
 192              	 .loc 1 1387 0
 193              	 .cfi_startproc
 194              	 
 195              	 
 196              	 
 197 0000 80B4     	 push {r7}
 198              	.LCFI18:
 199              	 .cfi_def_cfa_offset 4
 200              	 .cfi_offset 7,-4
 201 0002 83B0     	 sub sp,sp,#12
 202              	.LCFI19:
 203              	 .cfi_def_cfa_offset 16
 204 0004 00AF     	 add r7,sp,#0
 205              	.LCFI20:
 206              	 .cfi_def_cfa_register 7
 207 0006 7860     	 str r0,[r7,#4]
 208 0008 0B46     	 mov r3,r1
 209 000a FB70     	 strb r3,[r7,#3]
1388:C:/work_mari/XMC4800/UART/Libraries/XMCLib/inc\xmc_usic.h ****   channel->SCTR = (uint32_t)(channel->SCTR & (~USIC_CH_SCTR_DOCFG_Msk)) | (uint32_t)data_output_mod
 210              	 .loc 1 1388 0
 211 000c 7B68     	 ldr r3,[r7,#4]
 212 000e 5B6B     	 ldr r3,[r3,#52]
 213 0010 23F0C002 	 bic r2,r3,#192
 214 0014 FB78     	 ldrb r3,[r7,#3]
 215 0016 1A43     	 orrs r2,r2,r3
 216 0018 7B68     	 ldr r3,[r7,#4]
 217 001a 5A63     	 str r2,[r3,#52]
1389:C:/work_mari/XMC4800/UART/Libraries/XMCLib/inc\xmc_usic.h **** }
 218              	 .loc 1 1389 0
 219 001c 0C37     	 adds r7,r7,#12
 220              	.LCFI21:
 221              	 .cfi_def_cfa_offset 4
 222 001e BD46     	 mov sp,r7
 223              	.LCFI22:
 224              	 .cfi_def_cfa_register 13
 225              	 
 226 0020 5DF8047B 	 ldr r7,[sp],#4
 227              	.LCFI23:
 228              	 .cfi_restore 7
 229              	 .cfi_def_cfa_offset 0
 230 0024 7047     	 bx lr
 231              	 .cfi_endproc
 232              	.LFE212:
 234 0026 00BF     	 .section .text.XMC_UART_CH_Init,"ax",%progbits
 235              	 .align 2
 236              	 .thumb
 237              	 .thumb_func
 239              	XMC_UART_CH_Init:
 240              	.LFB251:
 241              	 .file 2 "C:/work_mari/XMC4800/UART/Libraries/XMCLib/inc/xmc_uart.h"
   1:C:/work_mari/XMC4800/UART/Libraries/XMCLib/inc\xmc_uart.h **** /**
   2:C:/work_mari/XMC4800/UART/Libraries/XMCLib/inc\xmc_uart.h **** * @file xmc_uart.h
   3:C:/work_mari/XMC4800/UART/Libraries/XMCLib/inc\xmc_uart.h **** * @date 2020-12-05
   4:C:/work_mari/XMC4800/UART/Libraries/XMCLib/inc\xmc_uart.h **** *
   5:C:/work_mari/XMC4800/UART/Libraries/XMCLib/inc\xmc_uart.h **** * @cond
   6:C:/work_mari/XMC4800/UART/Libraries/XMCLib/inc\xmc_uart.h **** *****************************************************************************
   7:C:/work_mari/XMC4800/UART/Libraries/XMCLib/inc\xmc_uart.h **** * XMClib v2.2.0 - XMC Peripheral Driver Library
   8:C:/work_mari/XMC4800/UART/Libraries/XMCLib/inc\xmc_uart.h **** *
   9:C:/work_mari/XMC4800/UART/Libraries/XMCLib/inc\xmc_uart.h **** * Copyright (c) 2015-2020, Infineon Technologies AG
  10:C:/work_mari/XMC4800/UART/Libraries/XMCLib/inc\xmc_uart.h **** * All rights reserved.
  11:C:/work_mari/XMC4800/UART/Libraries/XMCLib/inc\xmc_uart.h **** *
  12:C:/work_mari/XMC4800/UART/Libraries/XMCLib/inc\xmc_uart.h **** * Boost Software License - Version 1.0 - August 17th, 2003
  13:C:/work_mari/XMC4800/UART/Libraries/XMCLib/inc\xmc_uart.h **** *
  14:C:/work_mari/XMC4800/UART/Libraries/XMCLib/inc\xmc_uart.h **** * Permission is hereby granted, free of charge, to any person or organization
  15:C:/work_mari/XMC4800/UART/Libraries/XMCLib/inc\xmc_uart.h **** * obtaining a copy of the software and accompanying documentation covered by
  16:C:/work_mari/XMC4800/UART/Libraries/XMCLib/inc\xmc_uart.h **** * this license (the "Software") to use, reproduce, display, distribute,
  17:C:/work_mari/XMC4800/UART/Libraries/XMCLib/inc\xmc_uart.h **** * execute, and transmit the Software, and to prepare derivative works of the
  18:C:/work_mari/XMC4800/UART/Libraries/XMCLib/inc\xmc_uart.h **** * Software, and to permit third-parties to whom the Software is furnished to
  19:C:/work_mari/XMC4800/UART/Libraries/XMCLib/inc\xmc_uart.h **** * do so, all subject to the following:
  20:C:/work_mari/XMC4800/UART/Libraries/XMCLib/inc\xmc_uart.h **** *
  21:C:/work_mari/XMC4800/UART/Libraries/XMCLib/inc\xmc_uart.h **** * The copyright notices in the Software and this entire statement, including
  22:C:/work_mari/XMC4800/UART/Libraries/XMCLib/inc\xmc_uart.h **** * the above license grant, this restriction and the following disclaimer,
  23:C:/work_mari/XMC4800/UART/Libraries/XMCLib/inc\xmc_uart.h **** * must be included in all copies of the Software, in whole or in part, and
  24:C:/work_mari/XMC4800/UART/Libraries/XMCLib/inc\xmc_uart.h **** * all derivative works of the Software, unless such copies or derivative
  25:C:/work_mari/XMC4800/UART/Libraries/XMCLib/inc\xmc_uart.h **** * works are solely in the form of machine-executable object code generated by
  26:C:/work_mari/XMC4800/UART/Libraries/XMCLib/inc\xmc_uart.h **** * a source language processor.
  27:C:/work_mari/XMC4800/UART/Libraries/XMCLib/inc\xmc_uart.h **** *
  28:C:/work_mari/XMC4800/UART/Libraries/XMCLib/inc\xmc_uart.h **** * THE SOFTWARE IS PROVIDED "AS IS", WITHOUT WARRANTY OF ANY KIND, EXPRESS OR
  29:C:/work_mari/XMC4800/UART/Libraries/XMCLib/inc\xmc_uart.h **** * IMPLIED, INCLUDING BUT NOT LIMITED TO THE WARRANTIES OF MERCHANTABILITY,
  30:C:/work_mari/XMC4800/UART/Libraries/XMCLib/inc\xmc_uart.h **** * FITNESS FOR A PARTICULAR PURPOSE, TITLE AND NON-INFRINGEMENT. IN NO EVENT
  31:C:/work_mari/XMC4800/UART/Libraries/XMCLib/inc\xmc_uart.h **** * SHALL THE COPYRIGHT HOLDERS OR ANYONE DISTRIBUTING THE SOFTWARE BE LIABLE
  32:C:/work_mari/XMC4800/UART/Libraries/XMCLib/inc\xmc_uart.h **** * FOR ANY DAMAGES OR OTHER LIABILITY, WHETHER IN CONTRACT, TORT OR OTHERWISE,
  33:C:/work_mari/XMC4800/UART/Libraries/XMCLib/inc\xmc_uart.h **** * ARISING FROM, OUT OF OR IN CONNECTION WITH THE SOFTWARE OR THE USE OR OTHER
  34:C:/work_mari/XMC4800/UART/Libraries/XMCLib/inc\xmc_uart.h **** * DEALINGS IN THE SOFTWARE.
  35:C:/work_mari/XMC4800/UART/Libraries/XMCLib/inc\xmc_uart.h **** *
  36:C:/work_mari/XMC4800/UART/Libraries/XMCLib/inc\xmc_uart.h **** * To improve the quality of the software, users are encouraged to share
  37:C:/work_mari/XMC4800/UART/Libraries/XMCLib/inc\xmc_uart.h **** * modifications, enhancements or bug fixes with Infineon Technologies AG
  38:C:/work_mari/XMC4800/UART/Libraries/XMCLib/inc\xmc_uart.h **** * at XMCSupport@infineon.com.
  39:C:/work_mari/XMC4800/UART/Libraries/XMCLib/inc\xmc_uart.h **** *****************************************************************************
  40:C:/work_mari/XMC4800/UART/Libraries/XMCLib/inc\xmc_uart.h **** *
  41:C:/work_mari/XMC4800/UART/Libraries/XMCLib/inc\xmc_uart.h **** * Change History
  42:C:/work_mari/XMC4800/UART/Libraries/XMCLib/inc\xmc_uart.h **** * --------------
  43:C:/work_mari/XMC4800/UART/Libraries/XMCLib/inc\xmc_uart.h **** *
  44:C:/work_mari/XMC4800/UART/Libraries/XMCLib/inc\xmc_uart.h **** * 2015-02-20:
  45:C:/work_mari/XMC4800/UART/Libraries/XMCLib/inc\xmc_uart.h **** *     - Initial
  46:C:/work_mari/XMC4800/UART/Libraries/XMCLib/inc\xmc_uart.h **** *
  47:C:/work_mari/XMC4800/UART/Libraries/XMCLib/inc\xmc_uart.h **** * 2015-05-20:
  48:C:/work_mari/XMC4800/UART/Libraries/XMCLib/inc\xmc_uart.h **** *     - Description updated <br>
  49:C:/work_mari/XMC4800/UART/Libraries/XMCLib/inc\xmc_uart.h **** *     - Added XMC_UART_CH_TriggerServiceRequest() and XMC_UART_CH_SelectInterruptNodePointer <br>
  50:C:/work_mari/XMC4800/UART/Libraries/XMCLib/inc\xmc_uart.h **** *
  51:C:/work_mari/XMC4800/UART/Libraries/XMCLib/inc\xmc_uart.h **** * 2015-06-20:
  52:C:/work_mari/XMC4800/UART/Libraries/XMCLib/inc\xmc_uart.h **** *     - Removed version macros and declaration of GetDriverVersion API <br>
  53:C:/work_mari/XMC4800/UART/Libraries/XMCLib/inc\xmc_uart.h **** *
  54:C:/work_mari/XMC4800/UART/Libraries/XMCLib/inc\xmc_uart.h **** * 2015-09-01:
  55:C:/work_mari/XMC4800/UART/Libraries/XMCLib/inc\xmc_uart.h **** *     - Modified XMC_UART_CH_SetInputSource() for avoiding complete DXCR register overwriting. <br>
  56:C:/work_mari/XMC4800/UART/Libraries/XMCLib/inc\xmc_uart.h **** *     - Modified XMC_UART_CH_EVENT_t enum for supporting XMC_UART_CH_EnableEvent() and XMC_UART_CH_
  57:C:/work_mari/XMC4800/UART/Libraries/XMCLib/inc\xmc_uart.h **** *       for supporting multiple events configuration <br>
  58:C:/work_mari/XMC4800/UART/Libraries/XMCLib/inc\xmc_uart.h **** *
  59:C:/work_mari/XMC4800/UART/Libraries/XMCLib/inc\xmc_uart.h **** * 2016-05-20:
  60:C:/work_mari/XMC4800/UART/Libraries/XMCLib/inc\xmc_uart.h **** *     - Added XMC_UART_CH_EnableDataTransmission() and XMC_UART_CH_DisableDataTransmission()
  61:C:/work_mari/XMC4800/UART/Libraries/XMCLib/inc\xmc_uart.h **** *
  62:C:/work_mari/XMC4800/UART/Libraries/XMCLib/inc\xmc_uart.h **** * 2017-10-25:
  63:C:/work_mari/XMC4800/UART/Libraries/XMCLib/inc\xmc_uart.h **** *     - Added XMC_UART_CH_EnableMasterClock() and XMC_UART_CH_DisableMasterClock()
  64:C:/work_mari/XMC4800/UART/Libraries/XMCLib/inc\xmc_uart.h **** *
  65:C:/work_mari/XMC4800/UART/Libraries/XMCLib/inc\xmc_uart.h **** * 2019-05-07:
  66:C:/work_mari/XMC4800/UART/Libraries/XMCLib/inc\xmc_uart.h **** *     - Added normal_divider_mode to XMC_UART_CH_CONFIG_t configuration structure.
  67:C:/work_mari/XMC4800/UART/Libraries/XMCLib/inc\xmc_uart.h **** *       It selects normal divider mode for baudrate generator instead of default fractional divider
  68:C:/work_mari/XMC4800/UART/Libraries/XMCLib/inc\xmc_uart.h **** *     - Added XMC_UART_CH_SetBaudrateEx()
  69:C:/work_mari/XMC4800/UART/Libraries/XMCLib/inc\xmc_uart.h **** *
  70:C:/work_mari/XMC4800/UART/Libraries/XMCLib/inc\xmc_uart.h **** * 2020-12-05:
  71:C:/work_mari/XMC4800/UART/Libraries/XMCLib/inc\xmc_uart.h **** *    - Added XMC_UART_CH_InitEx() that allows user select if automatic baudrate configuration shoul
  72:C:/work_mari/XMC4800/UART/Libraries/XMCLib/inc\xmc_uart.h **** * 
  73:C:/work_mari/XMC4800/UART/Libraries/XMCLib/inc\xmc_uart.h **** * @endcond
  74:C:/work_mari/XMC4800/UART/Libraries/XMCLib/inc\xmc_uart.h **** *
  75:C:/work_mari/XMC4800/UART/Libraries/XMCLib/inc\xmc_uart.h **** */
  76:C:/work_mari/XMC4800/UART/Libraries/XMCLib/inc\xmc_uart.h **** 
  77:C:/work_mari/XMC4800/UART/Libraries/XMCLib/inc\xmc_uart.h **** #ifndef XMC_UART_H
  78:C:/work_mari/XMC4800/UART/Libraries/XMCLib/inc\xmc_uart.h **** #define XMC_UART_H
  79:C:/work_mari/XMC4800/UART/Libraries/XMCLib/inc\xmc_uart.h **** 
  80:C:/work_mari/XMC4800/UART/Libraries/XMCLib/inc\xmc_uart.h **** /**************************************************************************************************
  81:C:/work_mari/XMC4800/UART/Libraries/XMCLib/inc\xmc_uart.h ****  * HEADER FILES
  82:C:/work_mari/XMC4800/UART/Libraries/XMCLib/inc\xmc_uart.h ****  **************************************************************************************************
  83:C:/work_mari/XMC4800/UART/Libraries/XMCLib/inc\xmc_uart.h **** 
  84:C:/work_mari/XMC4800/UART/Libraries/XMCLib/inc\xmc_uart.h **** #include "xmc_usic.h"
  85:C:/work_mari/XMC4800/UART/Libraries/XMCLib/inc\xmc_uart.h **** 
  86:C:/work_mari/XMC4800/UART/Libraries/XMCLib/inc\xmc_uart.h **** /**
  87:C:/work_mari/XMC4800/UART/Libraries/XMCLib/inc\xmc_uart.h ****  * @addtogroup XMClib XMC Peripheral Library
  88:C:/work_mari/XMC4800/UART/Libraries/XMCLib/inc\xmc_uart.h ****  * @{
  89:C:/work_mari/XMC4800/UART/Libraries/XMCLib/inc\xmc_uart.h ****  */
  90:C:/work_mari/XMC4800/UART/Libraries/XMCLib/inc\xmc_uart.h **** 
  91:C:/work_mari/XMC4800/UART/Libraries/XMCLib/inc\xmc_uart.h **** /**
  92:C:/work_mari/XMC4800/UART/Libraries/XMCLib/inc\xmc_uart.h ****  * @addtogroup UART
  93:C:/work_mari/XMC4800/UART/Libraries/XMCLib/inc\xmc_uart.h ****  * @brief Universal Asynchronous Receiver/Transmitter (UART) driver for XMC microcontroller family.
  94:C:/work_mari/XMC4800/UART/Libraries/XMCLib/inc\xmc_uart.h ****  *
  95:C:/work_mari/XMC4800/UART/Libraries/XMCLib/inc\xmc_uart.h ****  * The UART driver uses Universal Serial Interface Channel(USIC) module to implement UART protocol.
  96:C:/work_mari/XMC4800/UART/Libraries/XMCLib/inc\xmc_uart.h ****  * It provides APIs to configure USIC channel for UART communication. The driver enables the user
  97:C:/work_mari/XMC4800/UART/Libraries/XMCLib/inc\xmc_uart.h ****  * in getting the status of UART protocol events, configuring interrupt service requests, protocol
  98:C:/work_mari/XMC4800/UART/Libraries/XMCLib/inc\xmc_uart.h ****  * related parameter configuration etc.
  99:C:/work_mari/XMC4800/UART/Libraries/XMCLib/inc\xmc_uart.h ****  *
 100:C:/work_mari/XMC4800/UART/Libraries/XMCLib/inc\xmc_uart.h ****  * UART driver features:
 101:C:/work_mari/XMC4800/UART/Libraries/XMCLib/inc\xmc_uart.h ****  * -# Configuration structure XMC_UART_CH_CONFIG_t and initialization function XMC_UART_CH_Init()
 102:C:/work_mari/XMC4800/UART/Libraries/XMCLib/inc\xmc_uart.h ****  * -# Enumeration of events with their bit masks @ref XMC_UART_CH_EVENT_t, @ref XMC_UART_CH_STATUS_
 103:C:/work_mari/XMC4800/UART/Libraries/XMCLib/inc\xmc_uart.h ****  * -# Allows the selection of input source for the DX0 input stage using the API XMC_UART_CH_SetInp
 104:C:/work_mari/XMC4800/UART/Libraries/XMCLib/inc\xmc_uart.h ****  * -# Allows configuration of baudrate using XMC_UART_CH_SetBaudrate() and configuration of data le
 105:C:/work_mari/XMC4800/UART/Libraries/XMCLib/inc\xmc_uart.h ****  XMC_UART_CH_SetWordLength() and XMC_UART_CH_SetFrameLength()
 106:C:/work_mari/XMC4800/UART/Libraries/XMCLib/inc\xmc_uart.h ****  * -# Provides the status of UART protocol events, XMC_UART_CH_GetStatusFlag()
 107:C:/work_mari/XMC4800/UART/Libraries/XMCLib/inc\xmc_uart.h ****  * -# Allows transmission of data using XMC_UART_CH_Transmit() and gets received data using XMC_UAR
 108:C:/work_mari/XMC4800/UART/Libraries/XMCLib/inc\xmc_uart.h ****  *
 109:C:/work_mari/XMC4800/UART/Libraries/XMCLib/inc\xmc_uart.h ****  * @{
 110:C:/work_mari/XMC4800/UART/Libraries/XMCLib/inc\xmc_uart.h ****  */
 111:C:/work_mari/XMC4800/UART/Libraries/XMCLib/inc\xmc_uart.h **** 
 112:C:/work_mari/XMC4800/UART/Libraries/XMCLib/inc\xmc_uart.h **** /**************************************************************************************************
 113:C:/work_mari/XMC4800/UART/Libraries/XMCLib/inc\xmc_uart.h ****  * MACROS
 114:C:/work_mari/XMC4800/UART/Libraries/XMCLib/inc\xmc_uart.h ****  **************************************************************************************************
 115:C:/work_mari/XMC4800/UART/Libraries/XMCLib/inc\xmc_uart.h **** 
 116:C:/work_mari/XMC4800/UART/Libraries/XMCLib/inc\xmc_uart.h **** #if defined(USIC0)
 117:C:/work_mari/XMC4800/UART/Libraries/XMCLib/inc\xmc_uart.h **** #define XMC_UART0_CH0 XMC_USIC0_CH0 /**< USIC0 channel 0 base address */
 118:C:/work_mari/XMC4800/UART/Libraries/XMCLib/inc\xmc_uart.h **** #define XMC_UART0_CH1 XMC_USIC0_CH1 /**< USIC0 channel 1 base address */
 119:C:/work_mari/XMC4800/UART/Libraries/XMCLib/inc\xmc_uart.h **** #endif
 120:C:/work_mari/XMC4800/UART/Libraries/XMCLib/inc\xmc_uart.h **** 
 121:C:/work_mari/XMC4800/UART/Libraries/XMCLib/inc\xmc_uart.h **** #if defined(USIC1)
 122:C:/work_mari/XMC4800/UART/Libraries/XMCLib/inc\xmc_uart.h **** #define XMC_UART1_CH0 XMC_USIC1_CH0 /**< USIC1 channel 0 base address */
 123:C:/work_mari/XMC4800/UART/Libraries/XMCLib/inc\xmc_uart.h **** #define XMC_UART1_CH1 XMC_USIC1_CH1 /**< USIC1 channel 1 base address */
 124:C:/work_mari/XMC4800/UART/Libraries/XMCLib/inc\xmc_uart.h **** #endif
 125:C:/work_mari/XMC4800/UART/Libraries/XMCLib/inc\xmc_uart.h **** 
 126:C:/work_mari/XMC4800/UART/Libraries/XMCLib/inc\xmc_uart.h **** #if defined(USIC2)
 127:C:/work_mari/XMC4800/UART/Libraries/XMCLib/inc\xmc_uart.h **** #define XMC_UART2_CH0 XMC_USIC2_CH0 /**< USIC2 channel 0 base address */
 128:C:/work_mari/XMC4800/UART/Libraries/XMCLib/inc\xmc_uart.h **** #define XMC_UART2_CH1 XMC_USIC2_CH1 /**< USIC2 channel 1 base address */
 129:C:/work_mari/XMC4800/UART/Libraries/XMCLib/inc\xmc_uart.h **** #endif
 130:C:/work_mari/XMC4800/UART/Libraries/XMCLib/inc\xmc_uart.h **** 
 131:C:/work_mari/XMC4800/UART/Libraries/XMCLib/inc\xmc_uart.h **** /**************************************************************************************************
 132:C:/work_mari/XMC4800/UART/Libraries/XMCLib/inc\xmc_uart.h ****  * ENUMS
 133:C:/work_mari/XMC4800/UART/Libraries/XMCLib/inc\xmc_uart.h ****  **************************************************************************************************
 134:C:/work_mari/XMC4800/UART/Libraries/XMCLib/inc\xmc_uart.h **** 
 135:C:/work_mari/XMC4800/UART/Libraries/XMCLib/inc\xmc_uart.h **** /**
 136:C:/work_mari/XMC4800/UART/Libraries/XMCLib/inc\xmc_uart.h ****  * UART driver status
 137:C:/work_mari/XMC4800/UART/Libraries/XMCLib/inc\xmc_uart.h ****  */
 138:C:/work_mari/XMC4800/UART/Libraries/XMCLib/inc\xmc_uart.h **** typedef enum XMC_UART_CH_STATUS
 139:C:/work_mari/XMC4800/UART/Libraries/XMCLib/inc\xmc_uart.h **** {
 140:C:/work_mari/XMC4800/UART/Libraries/XMCLib/inc\xmc_uart.h ****   XMC_UART_CH_STATUS_OK,     /**< UART driver status : OK*/
 141:C:/work_mari/XMC4800/UART/Libraries/XMCLib/inc\xmc_uart.h ****   XMC_UART_CH_STATUS_ERROR,  /**< UART driver status : ERROR */
 142:C:/work_mari/XMC4800/UART/Libraries/XMCLib/inc\xmc_uart.h ****   XMC_UART_CH_STATUS_BUSY    /**< UART driver status : BUSY */
 143:C:/work_mari/XMC4800/UART/Libraries/XMCLib/inc\xmc_uart.h **** } XMC_UART_CH_STATUS_t;
 144:C:/work_mari/XMC4800/UART/Libraries/XMCLib/inc\xmc_uart.h **** 
 145:C:/work_mari/XMC4800/UART/Libraries/XMCLib/inc\xmc_uart.h **** /**
 146:C:/work_mari/XMC4800/UART/Libraries/XMCLib/inc\xmc_uart.h **** * UART portocol status. The enum values can be used for getting the status of UART channel.
 147:C:/work_mari/XMC4800/UART/Libraries/XMCLib/inc\xmc_uart.h **** *
 148:C:/work_mari/XMC4800/UART/Libraries/XMCLib/inc\xmc_uart.h **** */
 149:C:/work_mari/XMC4800/UART/Libraries/XMCLib/inc\xmc_uart.h **** typedef enum XMC_UART_CH_STATUS_FLAG
 150:C:/work_mari/XMC4800/UART/Libraries/XMCLib/inc\xmc_uart.h **** {
 151:C:/work_mari/XMC4800/UART/Libraries/XMCLib/inc\xmc_uart.h ****   XMC_UART_CH_STATUS_FLAG_TRANSMISSION_IDLE = USIC_CH_PSR_ASCMode_TXIDLE_Msk,                 /**< 
 152:C:/work_mari/XMC4800/UART/Libraries/XMCLib/inc\xmc_uart.h ****   XMC_UART_CH_STATUS_FLAG_RECEPTION_IDLE = USIC_CH_PSR_ASCMode_RXIDLE_Msk,                    /**< 
 153:C:/work_mari/XMC4800/UART/Libraries/XMCLib/inc\xmc_uart.h ****   XMC_UART_CH_STATUS_FLAG_SYNCHRONIZATION_BREAK_DETECTED = USIC_CH_PSR_ASCMode_SBD_Msk,       /**< 
 154:C:/work_mari/XMC4800/UART/Libraries/XMCLib/inc\xmc_uart.h ****   XMC_UART_CH_STATUS_FLAG_COLLISION_DETECTED = USIC_CH_PSR_ASCMode_COL_Msk,                   /**< 
 155:C:/work_mari/XMC4800/UART/Libraries/XMCLib/inc\xmc_uart.h ****   XMC_UART_CH_STATUS_FLAG_RECEIVER_NOISE_DETECTED = USIC_CH_PSR_ASCMode_RNS_Msk,              /**< 
 156:C:/work_mari/XMC4800/UART/Libraries/XMCLib/inc\xmc_uart.h ****   XMC_UART_CH_STATUS_FLAG_FORMAT_ERROR_IN_STOP_BIT_0 = USIC_CH_PSR_ASCMode_FER0_Msk,          /**< 
 157:C:/work_mari/XMC4800/UART/Libraries/XMCLib/inc\xmc_uart.h ****   XMC_UART_CH_STATUS_FLAG_FORMAT_ERROR_IN_STOP_BIT_1 = USIC_CH_PSR_ASCMode_FER1_Msk,          /**< 
 158:C:/work_mari/XMC4800/UART/Libraries/XMCLib/inc\xmc_uart.h ****   XMC_UART_CH_STATUS_FLAG_RECEIVE_FRAME_FINISHED = USIC_CH_PSR_ASCMode_RFF_Msk,               /**< 
 159:C:/work_mari/XMC4800/UART/Libraries/XMCLib/inc\xmc_uart.h ****   XMC_UART_CH_STATUS_FLAG_TRANSMITTER_FRAME_FINISHED = USIC_CH_PSR_ASCMode_TFF_Msk,           /**< 
 160:C:/work_mari/XMC4800/UART/Libraries/XMCLib/inc\xmc_uart.h ****   XMC_UART_CH_STATUS_FLAG_TRANSFER_STATUS_BUSY = USIC_CH_PSR_ASCMode_BUSY_Msk,                /**< 
 161:C:/work_mari/XMC4800/UART/Libraries/XMCLib/inc\xmc_uart.h ****   XMC_UART_CH_STATUS_FLAG_RECEIVER_START_INDICATION = USIC_CH_PSR_ASCMode_RSIF_Msk,           /**< 
 162:C:/work_mari/XMC4800/UART/Libraries/XMCLib/inc\xmc_uart.h ****   XMC_UART_CH_STATUS_FLAG_DATA_LOST_INDICATION = USIC_CH_PSR_ASCMode_DLIF_Msk,                /**< 
 163:C:/work_mari/XMC4800/UART/Libraries/XMCLib/inc\xmc_uart.h ****   XMC_UART_CH_STATUS_FLAG_TRANSMIT_SHIFT_INDICATION = USIC_CH_PSR_ASCMode_TSIF_Msk,           /**< 
 164:C:/work_mari/XMC4800/UART/Libraries/XMCLib/inc\xmc_uart.h ****   XMC_UART_CH_STATUS_FLAG_TRANSMIT_BUFFER_INDICATION = USIC_CH_PSR_ASCMode_TBIF_Msk,          /**< 
 165:C:/work_mari/XMC4800/UART/Libraries/XMCLib/inc\xmc_uart.h ****   XMC_UART_CH_STATUS_FLAG_RECEIVE_INDICATION = USIC_CH_PSR_ASCMode_RIF_Msk,                   /**< 
 166:C:/work_mari/XMC4800/UART/Libraries/XMCLib/inc\xmc_uart.h ****   XMC_UART_CH_STATUS_FLAG_ALTERNATIVE_RECEIVE_INDICATION = USIC_CH_PSR_ASCMode_AIF_Msk,       /**< 
 167:C:/work_mari/XMC4800/UART/Libraries/XMCLib/inc\xmc_uart.h ****   XMC_UART_CH_STATUS_FLAG_BAUD_RATE_GENERATOR_INDICATION = USIC_CH_PSR_ASCMode_BRGIF_Msk      /**< 
 168:C:/work_mari/XMC4800/UART/Libraries/XMCLib/inc\xmc_uart.h **** } XMC_UART_CH_STATUS_FLAG_t;
 169:C:/work_mari/XMC4800/UART/Libraries/XMCLib/inc\xmc_uart.h **** 
 170:C:/work_mari/XMC4800/UART/Libraries/XMCLib/inc\xmc_uart.h **** /**
 171:C:/work_mari/XMC4800/UART/Libraries/XMCLib/inc\xmc_uart.h **** * UART configuration events. The enums can be used for configuring events using the CCR register.
 172:C:/work_mari/XMC4800/UART/Libraries/XMCLib/inc\xmc_uart.h **** */
 173:C:/work_mari/XMC4800/UART/Libraries/XMCLib/inc\xmc_uart.h **** typedef enum XMC_CH_UART_EVENT
 174:C:/work_mari/XMC4800/UART/Libraries/XMCLib/inc\xmc_uart.h **** {
 175:C:/work_mari/XMC4800/UART/Libraries/XMCLib/inc\xmc_uart.h ****   XMC_UART_CH_EVENT_RECEIVE_START       = USIC_CH_CCR_RSIEN_Msk,  /**< Receive start event */
 176:C:/work_mari/XMC4800/UART/Libraries/XMCLib/inc\xmc_uart.h ****   XMC_UART_CH_EVENT_DATA_LOST           = USIC_CH_CCR_DLIEN_Msk,  /**< Data lost event */
 177:C:/work_mari/XMC4800/UART/Libraries/XMCLib/inc\xmc_uart.h ****   XMC_UART_CH_EVENT_TRANSMIT_SHIFT      = USIC_CH_CCR_TSIEN_Msk,  /**< Transmit shift event */
 178:C:/work_mari/XMC4800/UART/Libraries/XMCLib/inc\xmc_uart.h ****   XMC_UART_CH_EVENT_TRANSMIT_BUFFER     = USIC_CH_CCR_TBIEN_Msk,  /**< Transmit buffer event */
 179:C:/work_mari/XMC4800/UART/Libraries/XMCLib/inc\xmc_uart.h ****   XMC_UART_CH_EVENT_STANDARD_RECEIVE    = USIC_CH_CCR_RIEN_Msk,   /**< Receive event */
 180:C:/work_mari/XMC4800/UART/Libraries/XMCLib/inc\xmc_uart.h ****   XMC_UART_CH_EVENT_ALTERNATIVE_RECEIVE = USIC_CH_CCR_AIEN_Msk,   /**< Alternate receive event */
 181:C:/work_mari/XMC4800/UART/Libraries/XMCLib/inc\xmc_uart.h ****   XMC_UART_CH_EVENT_BAUD_RATE_GENERATOR = USIC_CH_CCR_BRGIEN_Msk, /**< Baudrate generator event */
 182:C:/work_mari/XMC4800/UART/Libraries/XMCLib/inc\xmc_uart.h **** 
 183:C:/work_mari/XMC4800/UART/Libraries/XMCLib/inc\xmc_uart.h ****   XMC_UART_CH_EVENT_SYNCHRONIZATION_BREAK = USIC_CH_PCR_ASCMode_SBIEN_Msk, /**< Event synchronizati
 184:C:/work_mari/XMC4800/UART/Libraries/XMCLib/inc\xmc_uart.h ****   XMC_UART_CH_EVENT_COLLISION = USIC_CH_PCR_ASCMode_CDEN_Msk,              /**< Event collision */
 185:C:/work_mari/XMC4800/UART/Libraries/XMCLib/inc\xmc_uart.h ****   XMC_UART_CH_EVENT_RECEIVER_NOISE = USIC_CH_PCR_ASCMode_RNIEN_Msk,        /**< Event receiver nois
 186:C:/work_mari/XMC4800/UART/Libraries/XMCLib/inc\xmc_uart.h ****   XMC_UART_CH_EVENT_FORMAT_ERROR = USIC_CH_PCR_ASCMode_FEIEN_Msk,          /**< Event format error 
 187:C:/work_mari/XMC4800/UART/Libraries/XMCLib/inc\xmc_uart.h ****   XMC_UART_CH_EVENT_FRAME_FINISHED = USIC_CH_PCR_ASCMode_FFIEN_Msk         /**< Event frame finishe
 188:C:/work_mari/XMC4800/UART/Libraries/XMCLib/inc\xmc_uart.h **** } XMC_UART_CH_EVENT_t;
 189:C:/work_mari/XMC4800/UART/Libraries/XMCLib/inc\xmc_uart.h **** 
 190:C:/work_mari/XMC4800/UART/Libraries/XMCLib/inc\xmc_uart.h **** /**
 191:C:/work_mari/XMC4800/UART/Libraries/XMCLib/inc\xmc_uart.h ****  * UART Input sampling frequency options
 192:C:/work_mari/XMC4800/UART/Libraries/XMCLib/inc\xmc_uart.h ****  */
 193:C:/work_mari/XMC4800/UART/Libraries/XMCLib/inc\xmc_uart.h **** typedef enum XMC_UART_CH_INPUT_SAMPLING_FREQ
 194:C:/work_mari/XMC4800/UART/Libraries/XMCLib/inc\xmc_uart.h **** {
 195:C:/work_mari/XMC4800/UART/Libraries/XMCLib/inc\xmc_uart.h ****   XMC_UART_CH_INPUT_SAMPLING_FREQ_FPERIPH            = XMC_USIC_CH_INPUT_SAMPLING_FREQ_FPERIPH,    
 196:C:/work_mari/XMC4800/UART/Libraries/XMCLib/inc\xmc_uart.h ****   XMC_UART_CH_INPUT_SAMPLING_FREQ_FRACTIONAL_DIVIDER = XMC_USIC_CH_INPUT_SAMPLING_FREQ_FRACTIONAL_D
 197:C:/work_mari/XMC4800/UART/Libraries/XMCLib/inc\xmc_uart.h **** } XMC_UART_CH_INPUT_SAMPLING_FREQ_t;
 198:C:/work_mari/XMC4800/UART/Libraries/XMCLib/inc\xmc_uart.h **** 
 199:C:/work_mari/XMC4800/UART/Libraries/XMCLib/inc\xmc_uart.h **** /**
 200:C:/work_mari/XMC4800/UART/Libraries/XMCLib/inc\xmc_uart.h ****  * UART input stages
 201:C:/work_mari/XMC4800/UART/Libraries/XMCLib/inc\xmc_uart.h ****  */
 202:C:/work_mari/XMC4800/UART/Libraries/XMCLib/inc\xmc_uart.h **** typedef enum XMC_UART_CH_INPUT
 203:C:/work_mari/XMC4800/UART/Libraries/XMCLib/inc\xmc_uart.h **** {
 204:C:/work_mari/XMC4800/UART/Libraries/XMCLib/inc\xmc_uart.h ****   XMC_UART_CH_INPUT_RXD = 0UL   /**< UART input stage DX0*/
 205:C:/work_mari/XMC4800/UART/Libraries/XMCLib/inc\xmc_uart.h **** #if UC_FAMILY == XMC1
 206:C:/work_mari/XMC4800/UART/Libraries/XMCLib/inc\xmc_uart.h ****   ,
 207:C:/work_mari/XMC4800/UART/Libraries/XMCLib/inc\xmc_uart.h ****   XMC_UART_CH_INPUT_RXD1 = 3UL, /**< UART input stage DX3*/
 208:C:/work_mari/XMC4800/UART/Libraries/XMCLib/inc\xmc_uart.h ****   XMC_UART_CH_INPUT_RXD2 = 5UL  /**< UART input stage DX5*/
 209:C:/work_mari/XMC4800/UART/Libraries/XMCLib/inc\xmc_uart.h **** #endif
 210:C:/work_mari/XMC4800/UART/Libraries/XMCLib/inc\xmc_uart.h **** } XMC_UART_CH_INPUT_t;
 211:C:/work_mari/XMC4800/UART/Libraries/XMCLib/inc\xmc_uart.h **** 
 212:C:/work_mari/XMC4800/UART/Libraries/XMCLib/inc\xmc_uart.h **** 
 213:C:/work_mari/XMC4800/UART/Libraries/XMCLib/inc\xmc_uart.h **** /**
 214:C:/work_mari/XMC4800/UART/Libraries/XMCLib/inc\xmc_uart.h ****  * UART channel interrupt node pointers
 215:C:/work_mari/XMC4800/UART/Libraries/XMCLib/inc\xmc_uart.h ****  */
 216:C:/work_mari/XMC4800/UART/Libraries/XMCLib/inc\xmc_uart.h **** typedef enum XMC_UART_CH_INTERRUPT_NODE_POINTER
 217:C:/work_mari/XMC4800/UART/Libraries/XMCLib/inc\xmc_uart.h **** {
 218:C:/work_mari/XMC4800/UART/Libraries/XMCLib/inc\xmc_uart.h ****   XMC_UART_CH_INTERRUPT_NODE_POINTER_TRANSMIT_SHIFT      = XMC_USIC_CH_INTERRUPT_NODE_POINTER_TRANS
 219:C:/work_mari/XMC4800/UART/Libraries/XMCLib/inc\xmc_uart.h ****   XMC_UART_CH_INTERRUPT_NODE_POINTER_TRANSMIT_BUFFER     = XMC_USIC_CH_INTERRUPT_NODE_POINTER_TRANS
 220:C:/work_mari/XMC4800/UART/Libraries/XMCLib/inc\xmc_uart.h ****   XMC_UART_CH_INTERRUPT_NODE_POINTER_RECEIVE             = XMC_USIC_CH_INTERRUPT_NODE_POINTER_RECEI
 221:C:/work_mari/XMC4800/UART/Libraries/XMCLib/inc\xmc_uart.h ****   XMC_UART_CH_INTERRUPT_NODE_POINTER_ALTERNATE_RECEIVE   = XMC_USIC_CH_INTERRUPT_NODE_POINTER_ALTER
 222:C:/work_mari/XMC4800/UART/Libraries/XMCLib/inc\xmc_uart.h ****   XMC_UART_CH_INTERRUPT_NODE_POINTER_PROTOCOL            = XMC_USIC_CH_INTERRUPT_NODE_POINTER_PROTO
 223:C:/work_mari/XMC4800/UART/Libraries/XMCLib/inc\xmc_uart.h **** } XMC_UART_CH_INTERRUPT_NODE_POINTER_t;
 224:C:/work_mari/XMC4800/UART/Libraries/XMCLib/inc\xmc_uart.h **** 
 225:C:/work_mari/XMC4800/UART/Libraries/XMCLib/inc\xmc_uart.h **** /**************************************************************************************************
 226:C:/work_mari/XMC4800/UART/Libraries/XMCLib/inc\xmc_uart.h ****  * DATA STRUCTURES
 227:C:/work_mari/XMC4800/UART/Libraries/XMCLib/inc\xmc_uart.h ****  **************************************************************************************************
 228:C:/work_mari/XMC4800/UART/Libraries/XMCLib/inc\xmc_uart.h **** 
 229:C:/work_mari/XMC4800/UART/Libraries/XMCLib/inc\xmc_uart.h **** /**
 230:C:/work_mari/XMC4800/UART/Libraries/XMCLib/inc\xmc_uart.h ****  * UART initialization structure
 231:C:/work_mari/XMC4800/UART/Libraries/XMCLib/inc\xmc_uart.h **** */
 232:C:/work_mari/XMC4800/UART/Libraries/XMCLib/inc\xmc_uart.h **** typedef struct XMC_UART_CH_CONFIG
 233:C:/work_mari/XMC4800/UART/Libraries/XMCLib/inc\xmc_uart.h **** {
 234:C:/work_mari/XMC4800/UART/Libraries/XMCLib/inc\xmc_uart.h ****   uint32_t baudrate;                         /**< Desired baudrate. \b Range: minimum= 100, maximum
 235:C:/work_mari/XMC4800/UART/Libraries/XMCLib/inc\xmc_uart.h ****   bool normal_divider_mode;                  /**< Selects normal divider mode for baudrate generato
 236:C:/work_mari/XMC4800/UART/Libraries/XMCLib/inc\xmc_uart.h ****   uint8_t data_bits;                         /**< Number of bits for the data field. Value configur
 237:C:/work_mari/XMC4800/UART/Libraries/XMCLib/inc\xmc_uart.h ****                                                   \b Range: minimum= 1, maximum= 16*/
 238:C:/work_mari/XMC4800/UART/Libraries/XMCLib/inc\xmc_uart.h ****   uint8_t frame_length;                      /**< Indicates nmber of bits in a frame. Configured as
 239:C:/work_mari/XMC4800/UART/Libraries/XMCLib/inc\xmc_uart.h ****                                                   \b Range: minimum= 1, maximum= 63*/
 240:C:/work_mari/XMC4800/UART/Libraries/XMCLib/inc\xmc_uart.h ****   uint8_t stop_bits;                         /**< Number of stop bits. \b Range: minimum= 1, maximu
 241:C:/work_mari/XMC4800/UART/Libraries/XMCLib/inc\xmc_uart.h ****   uint8_t oversampling;						           /**< Number of samples for a symbol(DCTQ).\b Range: minimum
 242:C:/work_mari/XMC4800/UART/Libraries/XMCLib/inc\xmc_uart.h ****   XMC_USIC_CH_PARITY_MODE_t parity_mode;     /**< Parity mode. \b Range: @ref XMC_USIC_CH_PARITY_MO
 243:C:/work_mari/XMC4800/UART/Libraries/XMCLib/inc\xmc_uart.h ****                                                   @ref XMC_USIC_CH_PARITY_MODE_ODD*/
 244:C:/work_mari/XMC4800/UART/Libraries/XMCLib/inc\xmc_uart.h **** } XMC_UART_CH_CONFIG_t;
 245:C:/work_mari/XMC4800/UART/Libraries/XMCLib/inc\xmc_uart.h **** 
 246:C:/work_mari/XMC4800/UART/Libraries/XMCLib/inc\xmc_uart.h **** /**************************************************************************************************
 247:C:/work_mari/XMC4800/UART/Libraries/XMCLib/inc\xmc_uart.h ****  * API PROTOTYPES
 248:C:/work_mari/XMC4800/UART/Libraries/XMCLib/inc\xmc_uart.h ****  **************************************************************************************************
 249:C:/work_mari/XMC4800/UART/Libraries/XMCLib/inc\xmc_uart.h **** 
 250:C:/work_mari/XMC4800/UART/Libraries/XMCLib/inc\xmc_uart.h **** #ifdef __cplusplus
 251:C:/work_mari/XMC4800/UART/Libraries/XMCLib/inc\xmc_uart.h **** extern "C" {
 252:C:/work_mari/XMC4800/UART/Libraries/XMCLib/inc\xmc_uart.h **** #endif
 253:C:/work_mari/XMC4800/UART/Libraries/XMCLib/inc\xmc_uart.h **** 
 254:C:/work_mari/XMC4800/UART/Libraries/XMCLib/inc\xmc_uart.h **** /**
 255:C:/work_mari/XMC4800/UART/Libraries/XMCLib/inc\xmc_uart.h ****  * @param channel Constant pointer to USIC channel handle of type @ref XMC_USIC_CH_t \n
 256:C:/work_mari/XMC4800/UART/Libraries/XMCLib/inc\xmc_uart.h ****  * 				  \b Range: @ref XMC_UART0_CH0, XMC_UART0_CH1,XMC_UART1_CH0, XMC_UART1_CH1,XMC_UART2_CH0, XM
 257:C:/work_mari/XMC4800/UART/Libraries/XMCLib/inc\xmc_uart.h ****  * @param config Constant pointer to UART configuration structure of type @ref XMC_UART_CH_CONFIG_t
 258:C:/work_mari/XMC4800/UART/Libraries/XMCLib/inc\xmc_uart.h ****  * @param init_brg Selects if the baudrate generator should be configured automatically.
 259:C:/work_mari/XMC4800/UART/Libraries/XMCLib/inc\xmc_uart.h ****  * @return XMC_UART_CH_STATUS_t Status of initializing the USIC channel for UART protocol.\n
 260:C:/work_mari/XMC4800/UART/Libraries/XMCLib/inc\xmc_uart.h ****  *          \b Range: @ref XMC_UART_CH_STATUS_OK if initialization is successful.\n
 261:C:/work_mari/XMC4800/UART/Libraries/XMCLib/inc\xmc_uart.h ****  *                    @ref XMC_UART_CH_STATUS_ERROR if configuration of baudrate failed.
 262:C:/work_mari/XMC4800/UART/Libraries/XMCLib/inc\xmc_uart.h ****  *
 263:C:/work_mari/XMC4800/UART/Libraries/XMCLib/inc\xmc_uart.h ****  * \par<b>Description</b><br>
 264:C:/work_mari/XMC4800/UART/Libraries/XMCLib/inc\xmc_uart.h ****  * Initializes the USIC channel for UART protocol.\n\n
 265:C:/work_mari/XMC4800/UART/Libraries/XMCLib/inc\xmc_uart.h ****  * During the initialization, USIC channel is enabled, baudrate is configured with the defined over
 266:C:/work_mari/XMC4800/UART/Libraries/XMCLib/inc\xmc_uart.h ****  * in the intialization structure. If the oversampling value is set to 0 in the structure, the defa
 267:C:/work_mari/XMC4800/UART/Libraries/XMCLib/inc\xmc_uart.h ****  * is considered. Sampling point for each symbol is configured at the half of sampling period. Symb
 268:C:/work_mari/XMC4800/UART/Libraries/XMCLib/inc\xmc_uart.h ****  * majority decision among 3 samples.
 269:C:/work_mari/XMC4800/UART/Libraries/XMCLib/inc\xmc_uart.h ****  * Word length is configured with the number of data bits. If the value of \a frame_length is 0, th
 270:C:/work_mari/XMC4800/UART/Libraries/XMCLib/inc\xmc_uart.h ****  * is set to the same value as word length. If \a frame_length is greater than 0, it is set as the 
 271:C:/work_mari/XMC4800/UART/Libraries/XMCLib/inc\xmc_uart.h ****  * Parity mode is set to the value configured for \a parity_mode.
 272:C:/work_mari/XMC4800/UART/Libraries/XMCLib/inc\xmc_uart.h ****  * The USIC channel should be set to UART mode by calling the XMC_UART_CH_Start() API after the ini
 273:C:/work_mari/XMC4800/UART/Libraries/XMCLib/inc\xmc_uart.h ****  *
 274:C:/work_mari/XMC4800/UART/Libraries/XMCLib/inc\xmc_uart.h ****  * \par<b>Related APIs:</b><BR>
 275:C:/work_mari/XMC4800/UART/Libraries/XMCLib/inc\xmc_uart.h ****  * XMC_UART_CH_Start(), XMC_UART_CH_Stop(), XMC_UART_CH_Transmit()\n\n\n
 276:C:/work_mari/XMC4800/UART/Libraries/XMCLib/inc\xmc_uart.h ****  */
 277:C:/work_mari/XMC4800/UART/Libraries/XMCLib/inc\xmc_uart.h **** void XMC_UART_CH_InitEx(XMC_USIC_CH_t *channel, const XMC_UART_CH_CONFIG_t *const config, bool init
 278:C:/work_mari/XMC4800/UART/Libraries/XMCLib/inc\xmc_uart.h **** 
 279:C:/work_mari/XMC4800/UART/Libraries/XMCLib/inc\xmc_uart.h **** /**
 280:C:/work_mari/XMC4800/UART/Libraries/XMCLib/inc\xmc_uart.h ****  * @param channel Constant pointer to USIC channel handle of type @ref XMC_USIC_CH_t \n
 281:C:/work_mari/XMC4800/UART/Libraries/XMCLib/inc\xmc_uart.h ****  * 				  \b Range: @ref XMC_UART0_CH0, XMC_UART0_CH1,XMC_UART1_CH0, XMC_UART1_CH1,XMC_UART2_CH0, XM
 282:C:/work_mari/XMC4800/UART/Libraries/XMCLib/inc\xmc_uart.h ****  * @param config Constant pointer to UART configuration structure of type @ref XMC_UART_CH_CONFIG_t
 283:C:/work_mari/XMC4800/UART/Libraries/XMCLib/inc\xmc_uart.h ****  * @return XMC_UART_CH_STATUS_t Status of initializing the USIC channel for UART protocol.\n
 284:C:/work_mari/XMC4800/UART/Libraries/XMCLib/inc\xmc_uart.h ****  *          \b Range: @ref XMC_UART_CH_STATUS_OK if initialization is successful.\n
 285:C:/work_mari/XMC4800/UART/Libraries/XMCLib/inc\xmc_uart.h ****  *                    @ref XMC_UART_CH_STATUS_ERROR if configuration of baudrate failed.
 286:C:/work_mari/XMC4800/UART/Libraries/XMCLib/inc\xmc_uart.h ****  *
 287:C:/work_mari/XMC4800/UART/Libraries/XMCLib/inc\xmc_uart.h ****  * \par<b>Description</b><br>
 288:C:/work_mari/XMC4800/UART/Libraries/XMCLib/inc\xmc_uart.h ****  * Initializes the USIC channel for UART protocol.\n\n
 289:C:/work_mari/XMC4800/UART/Libraries/XMCLib/inc\xmc_uart.h ****  * During the initialization, USIC channel is enabled, baudrate is configured with the defined over
 290:C:/work_mari/XMC4800/UART/Libraries/XMCLib/inc\xmc_uart.h ****  * in the intialization structure. If the oversampling value is set to 0 in the structure, the defa
 291:C:/work_mari/XMC4800/UART/Libraries/XMCLib/inc\xmc_uart.h ****  * is considered. Sampling point for each symbol is configured at the half of sampling period. Symb
 292:C:/work_mari/XMC4800/UART/Libraries/XMCLib/inc\xmc_uart.h ****  * majority decision among 3 samples.
 293:C:/work_mari/XMC4800/UART/Libraries/XMCLib/inc\xmc_uart.h ****  * Word length is configured with the number of data bits. If the value of \a frame_length is 0, th
 294:C:/work_mari/XMC4800/UART/Libraries/XMCLib/inc\xmc_uart.h ****  * is set to the same value as word length. If \a frame_length is greater than 0, it is set as the 
 295:C:/work_mari/XMC4800/UART/Libraries/XMCLib/inc\xmc_uart.h ****  * Parity mode is set to the value configured for \a parity_mode.
 296:C:/work_mari/XMC4800/UART/Libraries/XMCLib/inc\xmc_uart.h ****  * The USIC channel should be set to UART mode by calling the XMC_UART_CH_Start() API after the ini
 297:C:/work_mari/XMC4800/UART/Libraries/XMCLib/inc\xmc_uart.h ****  *
 298:C:/work_mari/XMC4800/UART/Libraries/XMCLib/inc\xmc_uart.h ****  * \par<b>Related APIs:</b><BR>
 299:C:/work_mari/XMC4800/UART/Libraries/XMCLib/inc\xmc_uart.h ****  * XMC_UART_CH_Start(), XMC_UART_CH_Stop(), XMC_UART_CH_Transmit()\n\n\n
 300:C:/work_mari/XMC4800/UART/Libraries/XMCLib/inc\xmc_uart.h ****  */
 301:C:/work_mari/XMC4800/UART/Libraries/XMCLib/inc\xmc_uart.h **** __STATIC_INLINE void XMC_UART_CH_Init(XMC_USIC_CH_t *const channel, const XMC_UART_CH_CONFIG_t *con
 302:C:/work_mari/XMC4800/UART/Libraries/XMCLib/inc\xmc_uart.h **** {
 242              	 .loc 2 302 0
 243              	 .cfi_startproc
 244              	 
 245              	 
 246 0000 80B5     	 push {r7,lr}
 247              	.LCFI24:
 248              	 .cfi_def_cfa_offset 8
 249              	 .cfi_offset 7,-8
 250              	 .cfi_offset 14,-4
 251 0002 82B0     	 sub sp,sp,#8
 252              	.LCFI25:
 253              	 .cfi_def_cfa_offset 16
 254 0004 00AF     	 add r7,sp,#0
 255              	.LCFI26:
 256              	 .cfi_def_cfa_register 7
 257 0006 7860     	 str r0,[r7,#4]
 258 0008 3960     	 str r1,[r7]
 303:C:/work_mari/XMC4800/UART/Libraries/XMCLib/inc\xmc_uart.h ****   XMC_UART_CH_InitEx(channel, config, true);
 259              	 .loc 2 303 0
 260 000a 7868     	 ldr r0,[r7,#4]
 261 000c 3968     	 ldr r1,[r7]
 262 000e 0122     	 movs r2,#1
 263 0010 FFF7FEFF 	 bl XMC_UART_CH_InitEx
 304:C:/work_mari/XMC4800/UART/Libraries/XMCLib/inc\xmc_uart.h **** }
 264              	 .loc 2 304 0
 265 0014 0837     	 adds r7,r7,#8
 266              	.LCFI27:
 267              	 .cfi_def_cfa_offset 8
 268 0016 BD46     	 mov sp,r7
 269              	.LCFI28:
 270              	 .cfi_def_cfa_register 13
 271              	 
 272 0018 80BD     	 pop {r7,pc}
 273              	 .cfi_endproc
 274              	.LFE251:
 276 001a 00BF     	 .section .text.XMC_UART_CH_Start,"ax",%progbits
 277              	 .align 2
 278              	 .thumb
 279              	 .thumb_func
 281              	XMC_UART_CH_Start:
 282              	.LFB252:
 305:C:/work_mari/XMC4800/UART/Libraries/XMCLib/inc\xmc_uart.h **** 
 306:C:/work_mari/XMC4800/UART/Libraries/XMCLib/inc\xmc_uart.h **** /**
 307:C:/work_mari/XMC4800/UART/Libraries/XMCLib/inc\xmc_uart.h ****  * @param channel Constant pointer to USIC channel handle of type @ref XMC_USIC_CH_t \n
 308:C:/work_mari/XMC4800/UART/Libraries/XMCLib/inc\xmc_uart.h ****  * 				  \b Range: @ref XMC_UART0_CH0, @ref XMC_UART0_CH1,@ref XMC_UART1_CH0,@ref XMC_UART1_CH1,@re
 309:C:/work_mari/XMC4800/UART/Libraries/XMCLib/inc\xmc_uart.h ****  * @return None
 310:C:/work_mari/XMC4800/UART/Libraries/XMCLib/inc\xmc_uart.h ****  *
 311:C:/work_mari/XMC4800/UART/Libraries/XMCLib/inc\xmc_uart.h ****  * \par<b>Description</b><br>
 312:C:/work_mari/XMC4800/UART/Libraries/XMCLib/inc\xmc_uart.h ****  * Sets the USIC channel operation mode to UART mode.\n\n
 313:C:/work_mari/XMC4800/UART/Libraries/XMCLib/inc\xmc_uart.h ****  * CCR register bitfield \a Mode is set to 2(UART mode). This API should be called after configurin
 314:C:/work_mari/XMC4800/UART/Libraries/XMCLib/inc\xmc_uart.h ****  * the USIC channel. Transmission and reception can happen only when the UART mode is set.
 315:C:/work_mari/XMC4800/UART/Libraries/XMCLib/inc\xmc_uart.h ****  * This is an inline function.
 316:C:/work_mari/XMC4800/UART/Libraries/XMCLib/inc\xmc_uart.h ****  *
 317:C:/work_mari/XMC4800/UART/Libraries/XMCLib/inc\xmc_uart.h ****  * \par<b>Related APIs:</b><BR>
 318:C:/work_mari/XMC4800/UART/Libraries/XMCLib/inc\xmc_uart.h ****  * XMC_UART_CH_Stop(), XMC_UART_CH_Transmit()\n\n\n
 319:C:/work_mari/XMC4800/UART/Libraries/XMCLib/inc\xmc_uart.h ****  */
 320:C:/work_mari/XMC4800/UART/Libraries/XMCLib/inc\xmc_uart.h **** __STATIC_INLINE void XMC_UART_CH_Start(XMC_USIC_CH_t *const channel)
 321:C:/work_mari/XMC4800/UART/Libraries/XMCLib/inc\xmc_uart.h **** {
 283              	 .loc 2 321 0
 284              	 .cfi_startproc
 285              	 
 286              	 
 287              	 
 288 0000 80B4     	 push {r7}
 289              	.LCFI29:
 290              	 .cfi_def_cfa_offset 4
 291              	 .cfi_offset 7,-4
 292 0002 83B0     	 sub sp,sp,#12
 293              	.LCFI30:
 294              	 .cfi_def_cfa_offset 16
 295 0004 00AF     	 add r7,sp,#0
 296              	.LCFI31:
 297              	 .cfi_def_cfa_register 7
 298 0006 7860     	 str r0,[r7,#4]
 322:C:/work_mari/XMC4800/UART/Libraries/XMCLib/inc\xmc_uart.h ****   channel->CCR = (uint32_t)(((channel->CCR) & (~USIC_CH_CCR_MODE_Msk)) | (uint32_t)XMC_USIC_CH_OPER
 299              	 .loc 2 322 0
 300 0008 7B68     	 ldr r3,[r7,#4]
 301 000a 1B6C     	 ldr r3,[r3,#64]
 302 000c 23F00F03 	 bic r3,r3,#15
 303 0010 43F00202 	 orr r2,r3,#2
 304 0014 7B68     	 ldr r3,[r7,#4]
 305 0016 1A64     	 str r2,[r3,#64]
 323:C:/work_mari/XMC4800/UART/Libraries/XMCLib/inc\xmc_uart.h **** }
 306              	 .loc 2 323 0
 307 0018 0C37     	 adds r7,r7,#12
 308              	.LCFI32:
 309              	 .cfi_def_cfa_offset 4
 310 001a BD46     	 mov sp,r7
 311              	.LCFI33:
 312              	 .cfi_def_cfa_register 13
 313              	 
 314 001c 5DF8047B 	 ldr r7,[sp],#4
 315              	.LCFI34:
 316              	 .cfi_restore 7
 317              	 .cfi_def_cfa_offset 0
 318 0020 7047     	 bx lr
 319              	 .cfi_endproc
 320              	.LFE252:
 322              	 .global UART_0_channel_config
 323 0022 00BF     	 .section .rodata.UART_0_channel_config,"a",%progbits
 324              	 .align 2
 327              	UART_0_channel_config:
 328 0000 80250000 	 .word 9600
 329 0004 00       	 .space 1
 330 0005 08       	 .byte 8
 331 0006 08       	 .byte 8
 332 0007 01       	 .byte 1
 333 0008 10       	 .byte 16
 334 0009 00       	 .space 1
 335 000a 0000     	 .short 0
 336              	 .global UART_0_tx_pin_config
 337              	 .section .rodata.UART_0_tx_pin_config,"a",%progbits
 338              	 .align 2
 341              	UART_0_tx_pin_config:
 342 0000 90       	 .byte -112
 343 0001 000000   	 .space 3
 344 0004 01000000 	 .word 1
 345 0008 02       	 .byte 2
 346 0009 000000   	 .space 3
 347              	 .global UART_0_tx_pin
 348              	 .section .rodata.UART_0_tx_pin,"a",%progbits
 349              	 .align 2
 352              	UART_0_tx_pin:
 353 0000 00800248 	 .word 1208123392
 354 0004 01       	 .byte 1
 355 0005 000000   	 .space 3
 356 0008 00000000 	 .word UART_0_tx_pin_config
 357              	 .global UART_0_config
 358              	 .section .rodata.UART_0_config,"a",%progbits
 359              	 .align 2
 362              	UART_0_config:
 363 0000 00000000 	 .word UART_0_channel_config
 364 0004 00000000 	 .word UART_0_init
 365 0008 00000000 	 .word 0
 366 000c 00000000 	 .word 0
 367 0010 00000000 	 .word 0
 368 0014 00000000 	 .word 0
 369 0018 00000000 	 .word 0
 370 001c 00000000 	 .word UART_0_tx_pin
 371 0020 00       	 .byte 0
 372 0021 02       	 .byte 2
 373 0022 02       	 .byte 2
 374 0023 03       	 .byte 3
 375 0024 03       	 .byte 3
 376 0025 000000   	 .space 3
 377              	 .global UART_0_runtime
 378              	 .section .bss.UART_0_runtime,"aw",%nobits
 379              	 .align 2
 382              	UART_0_runtime:
 383 0000 00000000 	 .space 28
 383      00000000 
 383      00000000 
 383      00000000 
 383      00000000 
 384              	 .global UART_0
 385              	 .section .data.UART_0,"aw",%progbits
 386              	 .align 2
 389              	UART_0:
 390 0000 00020248 	 .word 1208091136
 391 0004 00000000 	 .word UART_0_config
 392 0008 00000000 	 .word UART_0_runtime
 393              	 .global UART_0_rx_pin_config
 394              	 .section .rodata.UART_0_rx_pin_config,"a",%progbits
 395              	 .align 2
 398              	UART_0_rx_pin_config:
 399 0000 00       	 .byte 0
 400 0001 000000   	 .space 3
 401 0004 01000000 	 .word 1
 402 0008 02       	 .byte 2
 403 0009 000000   	 .space 3
 404              	 .section .text.UART_0_init,"ax",%progbits
 405              	 .align 2
 406              	 .global UART_0_init
 407              	 .thumb
 408              	 .thumb_func
 410              	UART_0_init:
 411              	.LFB290:
 412              	 .file 3 "../Dave/Generated/UART/uart_conf.c"
   1:../Dave/Generated/UART/uart_conf.c **** /**************************************************************************************************
   2:../Dave/Generated/UART/uart_conf.c **** * DAVE APP Name : UART       APP Version: 4.1.14
   3:../Dave/Generated/UART/uart_conf.c **** *
   4:../Dave/Generated/UART/uart_conf.c **** * NOTE:
   5:../Dave/Generated/UART/uart_conf.c **** * This file is generated by DAVE. Any manual modification done to this file will be lost when the c
   6:../Dave/Generated/UART/uart_conf.c **** ***************************************************************************************************
   7:../Dave/Generated/UART/uart_conf.c **** 
   8:../Dave/Generated/UART/uart_conf.c **** /**
   9:../Dave/Generated/UART/uart_conf.c ****  * @cond
  10:../Dave/Generated/UART/uart_conf.c ****  **************************************************************************************************
  11:../Dave/Generated/UART/uart_conf.c ****  *
  12:../Dave/Generated/UART/uart_conf.c ****  * Copyright (c) 2015-2020, Infineon Technologies AG
  13:../Dave/Generated/UART/uart_conf.c ****  * All rights reserved.
  14:../Dave/Generated/UART/uart_conf.c ****  *
  15:../Dave/Generated/UART/uart_conf.c ****  * Redistribution and use in source and binary forms, with or without modification,are permitted pr
  16:../Dave/Generated/UART/uart_conf.c ****  * following conditions are met:
  17:../Dave/Generated/UART/uart_conf.c ****  *
  18:../Dave/Generated/UART/uart_conf.c ****  *   Redistributions of source code must retain the above copyright notice, this list of conditions
  19:../Dave/Generated/UART/uart_conf.c ****  *   disclaimer.
  20:../Dave/Generated/UART/uart_conf.c ****  *
  21:../Dave/Generated/UART/uart_conf.c ****  *   Redistributions in binary form must reproduce the above copyright notice, this list of conditi
  22:../Dave/Generated/UART/uart_conf.c ****  *   following disclaimer in the documentation and/or other materials provided with the distributio
  23:../Dave/Generated/UART/uart_conf.c ****  *
  24:../Dave/Generated/UART/uart_conf.c ****  *   Neither the name of the copyright holders nor the names of its contributors may be used to end
  25:../Dave/Generated/UART/uart_conf.c ****  *   products derived from this software without specific prior written permission.
  26:../Dave/Generated/UART/uart_conf.c ****  *
  27:../Dave/Generated/UART/uart_conf.c ****  * THIS SOFTWARE IS PROVIDED BY THE COPYRIGHT HOLDERS AND CONTRIBUTORS "AS IS" AND ANY EXPRESS OR I
  28:../Dave/Generated/UART/uart_conf.c ****  * INCLUDING, BUT NOT LIMITED TO, THE IMPLIED WARRANTIES OF MERCHANTABILITY AND FITNESS FOR A PARTI
  29:../Dave/Generated/UART/uart_conf.c ****  * DISCLAIMED. IN NO EVENT SHALL THE COPYRIGHT HOLDER OR CONTRIBUTORS BE LIABLE  FOR ANY DIRECT, IN
  30:../Dave/Generated/UART/uart_conf.c ****  * SPECIAL, EXEMPLARY, OR CONSEQUENTIAL DAMAGES (INCLUDING, BUT NOT LIMITED TO, PROCUREMENT OF SUBS
  31:../Dave/Generated/UART/uart_conf.c ****  * SERVICES; LOSS OF USE, DATA, OR PROFITS; OR BUSINESS INTERRUPTION) HOWEVER CAUSED AND ON ANY THE
  32:../Dave/Generated/UART/uart_conf.c ****  * WHETHER IN CONTRACT, STRICT LIABILITY,OR TORT (INCLUDING NEGLIGENCE OR OTHERWISE) ARISING IN ANY
  33:../Dave/Generated/UART/uart_conf.c ****  * USE OF THIS SOFTWARE, EVEN IF ADVISED OF THE POSSIBILITY OF SUCH DAMAGE.
  34:../Dave/Generated/UART/uart_conf.c ****  *
  35:../Dave/Generated/UART/uart_conf.c ****  * To improve the quality of the software, users are encouraged to share modifications, enhancement
  36:../Dave/Generated/UART/uart_conf.c ****  * with Infineon Technologies AG (dave@infineon.com).
  37:../Dave/Generated/UART/uart_conf.c ****  **************************************************************************************************
  38:../Dave/Generated/UART/uart_conf.c ****  *
  39:../Dave/Generated/UART/uart_conf.c ****  * Change History
  40:../Dave/Generated/UART/uart_conf.c ****  * --------------
  41:../Dave/Generated/UART/uart_conf.c ****  *
  42:../Dave/Generated/UART/uart_conf.c ****  * 2015-02-16:
  43:../Dave/Generated/UART/uart_conf.c ****  *     - Initial version for DAVEv4.
  44:../Dave/Generated/UART/uart_conf.c ****  *
  45:../Dave/Generated/UART/uart_conf.c ****  * 2015-06-20:
  46:../Dave/Generated/UART/uart_conf.c ****  *     - Service request value moved from runtime structure to config structure.
  47:../Dave/Generated/UART/uart_conf.c ****  *
  48:../Dave/Generated/UART/uart_conf.c ****  * 2015-07-06:
  49:../Dave/Generated/UART/uart_conf.c ****  *     - Structure name changed from UART_DYNAMIC_t to UART_RUNTIME_t
  50:../Dave/Generated/UART/uart_conf.c ****  *
  51:../Dave/Generated/UART/uart_conf.c ****  * 2015-07-30:
  52:../Dave/Generated/UART/uart_conf.c ****  *     - Added DMA and Direct mode configuration
  53:../Dave/Generated/UART/uart_conf.c ****  * @endcond
  54:../Dave/Generated/UART/uart_conf.c ****  *
  55:../Dave/Generated/UART/uart_conf.c ****  */
  56:../Dave/Generated/UART/uart_conf.c **** /**************************************************************************************************
  57:../Dave/Generated/UART/uart_conf.c ****  * HEADER FILES
  58:../Dave/Generated/UART/uart_conf.c ****  **************************************************************************************************
  59:../Dave/Generated/UART/uart_conf.c **** #include "uart.h"
  60:../Dave/Generated/UART/uart_conf.c **** 
  61:../Dave/Generated/UART/uart_conf.c **** /**************************************************************************************************
  62:../Dave/Generated/UART/uart_conf.c ****  * EXTERN DECLARATIONS
  63:../Dave/Generated/UART/uart_conf.c ****  **************************************************************************************************
  64:../Dave/Generated/UART/uart_conf.c **** 
  65:../Dave/Generated/UART/uart_conf.c **** /*
  66:../Dave/Generated/UART/uart_conf.c ****  * Function monitors the configured protocol interrupt flags. It is called from the protocol interr
  67:../Dave/Generated/UART/uart_conf.c ****  * service handler.
  68:../Dave/Generated/UART/uart_conf.c ****  * Function reads the status of the USIC channel and checks for configured flags in the APP UI.
  69:../Dave/Generated/UART/uart_conf.c ****  * If any callback function is provided in the APP UI, it will be called when the selected flag is 
  70:../Dave/Generated/UART/uart_conf.c ****  */
  71:../Dave/Generated/UART/uart_conf.c **** extern void UART_lProtocolHandler(const UART_t * const handle);
  72:../Dave/Generated/UART/uart_conf.c **** 
  73:../Dave/Generated/UART/uart_conf.c **** 
  74:../Dave/Generated/UART/uart_conf.c **** /**************************************************************************************************
  75:../Dave/Generated/UART/uart_conf.c ****  * DATA STRUCTURES
  76:../Dave/Generated/UART/uart_conf.c ****  **************************************************************************************************
  77:../Dave/Generated/UART/uart_conf.c **** UART_STATUS_t UART_0_init(void);
  78:../Dave/Generated/UART/uart_conf.c **** 
  79:../Dave/Generated/UART/uart_conf.c **** /*USIC channel configuration*/
  80:../Dave/Generated/UART/uart_conf.c **** const XMC_UART_CH_CONFIG_t UART_0_channel_config =
  81:../Dave/Generated/UART/uart_conf.c **** {
  82:../Dave/Generated/UART/uart_conf.c ****   .baudrate      = 9600U,
  83:../Dave/Generated/UART/uart_conf.c ****   .data_bits     = 8U,
  84:../Dave/Generated/UART/uart_conf.c ****   .frame_length  = 8U,
  85:../Dave/Generated/UART/uart_conf.c ****   .stop_bits     = 1U,
  86:../Dave/Generated/UART/uart_conf.c ****   .oversampling  = 16U,
  87:../Dave/Generated/UART/uart_conf.c ****   .parity_mode   = XMC_USIC_CH_PARITY_MODE_NONE
  88:../Dave/Generated/UART/uart_conf.c **** };
  89:../Dave/Generated/UART/uart_conf.c **** /*Transmit pin configuration*/
  90:../Dave/Generated/UART/uart_conf.c **** const XMC_GPIO_CONFIG_t UART_0_tx_pin_config   = 
  91:../Dave/Generated/UART/uart_conf.c **** { 
  92:../Dave/Generated/UART/uart_conf.c ****   .mode             = XMC_GPIO_MODE_OUTPUT_PUSH_PULL_ALT2, 
  93:../Dave/Generated/UART/uart_conf.c ****   .output_level     = XMC_GPIO_OUTPUT_LEVEL_HIGH,
  94:../Dave/Generated/UART/uart_conf.c ****   .output_strength  = XMC_GPIO_OUTPUT_STRENGTH_STRONG_SOFT_EDGE
  95:../Dave/Generated/UART/uart_conf.c **** };
  96:../Dave/Generated/UART/uart_conf.c **** 
  97:../Dave/Generated/UART/uart_conf.c **** /*Transmit pin configuration used for initializing*/
  98:../Dave/Generated/UART/uart_conf.c **** const UART_TX_CONFIG_t UART_0_tx_pin = 
  99:../Dave/Generated/UART/uart_conf.c **** {
 100:../Dave/Generated/UART/uart_conf.c ****   .port = (XMC_GPIO_PORT_t *)PORT0_BASE,
 101:../Dave/Generated/UART/uart_conf.c ****   .config = &UART_0_tx_pin_config,
 102:../Dave/Generated/UART/uart_conf.c ****   .pin = 1U
 103:../Dave/Generated/UART/uart_conf.c **** };
 104:../Dave/Generated/UART/uart_conf.c **** 
 105:../Dave/Generated/UART/uart_conf.c **** /*UART APP configuration structure*/
 106:../Dave/Generated/UART/uart_conf.c **** const UART_CONFIG_t UART_0_config = 
 107:../Dave/Generated/UART/uart_conf.c **** {
 108:../Dave/Generated/UART/uart_conf.c ****   .channel_config   = &UART_0_channel_config,
 109:../Dave/Generated/UART/uart_conf.c **** 
 110:../Dave/Generated/UART/uart_conf.c **** 
 111:../Dave/Generated/UART/uart_conf.c ****   .fptr_uart_config = UART_0_init,  
 112:../Dave/Generated/UART/uart_conf.c ****   .sync_error_cbhandler = NULL,  
 113:../Dave/Generated/UART/uart_conf.c ****   .rx_noise_error_cbhandler = NULL,  
 114:../Dave/Generated/UART/uart_conf.c ****   .format_error_bit0_cbhandler = NULL,  
 115:../Dave/Generated/UART/uart_conf.c ****   .format_error_bit1_cbhandler = NULL,  
 116:../Dave/Generated/UART/uart_conf.c ****   .collision_error_cbhandler = NULL,
 117:../Dave/Generated/UART/uart_conf.c ****   .tx_pin_config    = &UART_0_tx_pin,
 118:../Dave/Generated/UART/uart_conf.c ****   .mode             = UART_MODE_FULLDUPLEX,
 119:../Dave/Generated/UART/uart_conf.c ****   .transmit_mode = UART_TRANSFER_MODE_DIRECT,
 120:../Dave/Generated/UART/uart_conf.c ****   .receive_mode = UART_TRANSFER_MODE_DIRECT,
 121:../Dave/Generated/UART/uart_conf.c ****   .tx_fifo_size     = XMC_USIC_CH_FIFO_SIZE_8WORDS,
 122:../Dave/Generated/UART/uart_conf.c ****   .rx_fifo_size     = XMC_USIC_CH_FIFO_SIZE_8WORDS,
 123:../Dave/Generated/UART/uart_conf.c **** };
 124:../Dave/Generated/UART/uart_conf.c **** 
 125:../Dave/Generated/UART/uart_conf.c **** /*Runtime handler*/
 126:../Dave/Generated/UART/uart_conf.c **** UART_RUNTIME_t UART_0_runtime = 
 127:../Dave/Generated/UART/uart_conf.c **** {
 128:../Dave/Generated/UART/uart_conf.c ****   .tx_busy = false,  
 129:../Dave/Generated/UART/uart_conf.c ****   .rx_busy = false,
 130:../Dave/Generated/UART/uart_conf.c **** };
 131:../Dave/Generated/UART/uart_conf.c **** 
 132:../Dave/Generated/UART/uart_conf.c **** /*APP handle structure*/
 133:../Dave/Generated/UART/uart_conf.c **** UART_t UART_0 = 
 134:../Dave/Generated/UART/uart_conf.c **** {
 135:../Dave/Generated/UART/uart_conf.c ****   .channel = XMC_UART1_CH1,
 136:../Dave/Generated/UART/uart_conf.c ****   .config  = &UART_0_config,
 137:../Dave/Generated/UART/uart_conf.c ****   .runtime = &UART_0_runtime
 138:../Dave/Generated/UART/uart_conf.c **** };
 139:../Dave/Generated/UART/uart_conf.c **** 
 140:../Dave/Generated/UART/uart_conf.c **** /*Receive pin configuration*/
 141:../Dave/Generated/UART/uart_conf.c **** const XMC_GPIO_CONFIG_t UART_0_rx_pin_config   = {
 142:../Dave/Generated/UART/uart_conf.c ****   .mode             = XMC_GPIO_MODE_INPUT_TRISTATE,
 143:../Dave/Generated/UART/uart_conf.c ****   .output_level     = XMC_GPIO_OUTPUT_LEVEL_HIGH,
 144:../Dave/Generated/UART/uart_conf.c ****   .output_strength  = XMC_GPIO_OUTPUT_STRENGTH_STRONG_SOFT_EDGE
 145:../Dave/Generated/UART/uart_conf.c **** };
 146:../Dave/Generated/UART/uart_conf.c **** /**************************************************************************************************
 147:../Dave/Generated/UART/uart_conf.c ****  * API IMPLEMENTATION
 148:../Dave/Generated/UART/uart_conf.c ****  **************************************************************************************************
 149:../Dave/Generated/UART/uart_conf.c **** /*Channel initialization function*/
 150:../Dave/Generated/UART/uart_conf.c **** UART_STATUS_t UART_0_init()
 151:../Dave/Generated/UART/uart_conf.c **** {
 413              	 .loc 3 151 0
 414              	 .cfi_startproc
 415              	 
 416              	 
 417 0000 80B5     	 push {r7,lr}
 418              	.LCFI35:
 419              	 .cfi_def_cfa_offset 8
 420              	 .cfi_offset 7,-8
 421              	 .cfi_offset 14,-4
 422 0002 82B0     	 sub sp,sp,#8
 423              	.LCFI36:
 424              	 .cfi_def_cfa_offset 16
 425 0004 00AF     	 add r7,sp,#0
 426              	.LCFI37:
 427              	 .cfi_def_cfa_register 7
 152:../Dave/Generated/UART/uart_conf.c ****   UART_STATUS_t status = UART_STATUS_SUCCESS;
 428              	 .loc 3 152 0
 429 0006 0023     	 movs r3,#0
 430 0008 FB71     	 strb r3,[r7,#7]
 153:../Dave/Generated/UART/uart_conf.c ****   /*Configure Receive pin*/
 154:../Dave/Generated/UART/uart_conf.c ****   XMC_GPIO_Init((XMC_GPIO_PORT_t *)PORT0_BASE, 0U, &UART_0_rx_pin_config);
 431              	 .loc 3 154 0
 432 000a 1C48     	 ldr r0,.L9
 433 000c 0021     	 movs r1,#0
 434 000e 1C4A     	 ldr r2,.L9+4
 435 0010 FFF7FEFF 	 bl XMC_GPIO_Init
 155:../Dave/Generated/UART/uart_conf.c ****   /* Initialize USIC channel in UART mode*/
 156:../Dave/Generated/UART/uart_conf.c ****   XMC_UART_CH_Init(XMC_UART1_CH1, &UART_0_channel_config);
 436              	 .loc 3 156 0
 437 0014 1B48     	 ldr r0,.L9+8
 438 0016 1C49     	 ldr r1,.L9+12
 439 0018 FFF7FEFF 	 bl XMC_UART_CH_Init
 157:../Dave/Generated/UART/uart_conf.c ****   /*Set input source path*/
 158:../Dave/Generated/UART/uart_conf.c ****   XMC_USIC_CH_SetInputSource(XMC_UART1_CH1, XMC_USIC_CH_INPUT_DX0, 3U);
 440              	 .loc 3 158 0
 441 001c 1948     	 ldr r0,.L9+8
 442 001e 0021     	 movs r1,#0
 443 0020 0322     	 movs r2,#3
 444 0022 FFF7FEFF 	 bl XMC_USIC_CH_SetInputSource
 159:../Dave/Generated/UART/uart_conf.c ****   /* MSB first */
 160:../Dave/Generated/UART/uart_conf.c ****   XMC_USIC_CH_SetShiftDirection(XMC_UART1_CH1, XMC_USIC_CH_SHIFT_DIRECTION_MSB_FIRST);
 445              	 .loc 3 160 0
 446 0026 1748     	 ldr r0,.L9+8
 447 0028 0121     	 movs r1,#1
 448 002a FFF7FEFF 	 bl XMC_USIC_CH_SetShiftDirection
 161:../Dave/Generated/UART/uart_conf.c **** 
 162:../Dave/Generated/UART/uart_conf.c ****   /* Invert output data */
 163:../Dave/Generated/UART/uart_conf.c ****   XMC_USIC_CH_SetDataOutputMode(XMC_UART1_CH1, XMC_USIC_CH_DATA_OUTPUT_MODE_INVERTED);
 449              	 .loc 3 163 0
 450 002e 1548     	 ldr r0,.L9+8
 451 0030 4021     	 movs r1,#64
 452 0032 FFF7FEFF 	 bl XMC_USIC_CH_SetDataOutputMode
 164:../Dave/Generated/UART/uart_conf.c **** 
 165:../Dave/Generated/UART/uart_conf.c ****   /* Invert input data */
 166:../Dave/Generated/UART/uart_conf.c ****   XMC_USIC_CH_EnableInputInversion(XMC_UART1_CH1, XMC_USIC_CH_INPUT_DX0);
 453              	 .loc 3 166 0
 454 0036 1348     	 ldr r0,.L9+8
 455 0038 0021     	 movs r1,#0
 456 003a FFF7FEFF 	 bl XMC_USIC_CH_EnableInputInversion
 167:../Dave/Generated/UART/uart_conf.c ****   /*Configure transmit FIFO*/
 168:../Dave/Generated/UART/uart_conf.c ****   XMC_USIC_CH_TXFIFO_Configure(XMC_UART1_CH1,
 457              	 .loc 3 168 0
 458 003e 1148     	 ldr r0,.L9+8
 459 0040 0821     	 movs r1,#8
 460 0042 0322     	 movs r2,#3
 461 0044 0123     	 movs r3,#1
 462 0046 FFF7FEFF 	 bl XMC_USIC_CH_TXFIFO_Configure
 169:../Dave/Generated/UART/uart_conf.c ****         8U,
 170:../Dave/Generated/UART/uart_conf.c ****         XMC_USIC_CH_FIFO_SIZE_8WORDS,
 171:../Dave/Generated/UART/uart_conf.c ****         1U);
 172:../Dave/Generated/UART/uart_conf.c ****   /*Configure receive FIFO*/
 173:../Dave/Generated/UART/uart_conf.c ****   XMC_USIC_CH_RXFIFO_Configure(XMC_UART1_CH1,
 463              	 .loc 3 173 0
 464 004a 0E48     	 ldr r0,.L9+8
 465 004c 0021     	 movs r1,#0
 466 004e 0322     	 movs r2,#3
 467 0050 0723     	 movs r3,#7
 468 0052 FFF7FEFF 	 bl XMC_USIC_CH_RXFIFO_Configure
 174:../Dave/Generated/UART/uart_conf.c ****         0U,
 175:../Dave/Generated/UART/uart_conf.c ****         XMC_USIC_CH_FIFO_SIZE_8WORDS,
 176:../Dave/Generated/UART/uart_conf.c ****         7U);
 177:../Dave/Generated/UART/uart_conf.c ****   /* Start UART */
 178:../Dave/Generated/UART/uart_conf.c ****   XMC_UART_CH_Start(XMC_UART1_CH1);
 469              	 .loc 3 178 0
 470 0056 0B48     	 ldr r0,.L9+8
 471 0058 FFF7FEFF 	 bl XMC_UART_CH_Start
 179:../Dave/Generated/UART/uart_conf.c **** 
 180:../Dave/Generated/UART/uart_conf.c ****   /* Initialize UART TX pin */
 181:../Dave/Generated/UART/uart_conf.c ****   XMC_GPIO_Init((XMC_GPIO_PORT_t *)PORT0_BASE, 1U, &UART_0_tx_pin_config);
 472              	 .loc 3 181 0
 473 005c 0748     	 ldr r0,.L9
 474 005e 0121     	 movs r1,#1
 475 0060 0A4A     	 ldr r2,.L9+16
 476 0062 FFF7FEFF 	 bl XMC_GPIO_Init
 182:../Dave/Generated/UART/uart_conf.c **** 
 183:../Dave/Generated/UART/uart_conf.c ****   /*Set service request for UART protocol events*/
 184:../Dave/Generated/UART/uart_conf.c ****   XMC_USIC_CH_SetInterruptNodePointer(XMC_UART1_CH1, XMC_USIC_CH_INTERRUPT_NODE_POINTER_PROTOCOL,
 477              	 .loc 3 184 0
 478 0066 0748     	 ldr r0,.L9+8
 479 0068 1021     	 movs r1,#16
 480 006a 0022     	 movs r2,#0
 481 006c FFF7FEFF 	 bl XMC_USIC_CH_SetInterruptNodePointer
 185:../Dave/Generated/UART/uart_conf.c ****      0U);
 186:../Dave/Generated/UART/uart_conf.c ****   return status;
 482              	 .loc 3 186 0
 483 0070 FB79     	 ldrb r3,[r7,#7]
 187:../Dave/Generated/UART/uart_conf.c **** }
 484              	 .loc 3 187 0
 485 0072 1846     	 mov r0,r3
 486 0074 0837     	 adds r7,r7,#8
 487              	.LCFI38:
 488              	 .cfi_def_cfa_offset 8
 489 0076 BD46     	 mov sp,r7
 490              	.LCFI39:
 491              	 .cfi_def_cfa_register 13
 492              	 
 493 0078 80BD     	 pop {r7,pc}
 494              	.L10:
 495 007a 00BF     	 .align 2
 496              	.L9:
 497 007c 00800248 	 .word 1208123392
 498 0080 00000000 	 .word UART_0_rx_pin_config
 499 0084 00020248 	 .word 1208091136
 500 0088 00000000 	 .word UART_0_channel_config
 501 008c 00000000 	 .word UART_0_tx_pin_config
 502              	 .cfi_endproc
 503              	.LFE290:
 505              	 .text
 506              	.Letext0:
 507              	 .file 4 "c:\\infineon\\tools\\dave ide\\4.5.0.202105191637\\eclipse\\arm-gcc-49\\arm-none-eabi\\include\\machine\\_default_types.h"
 508              	 .file 5 "c:\\infineon\\tools\\dave ide\\4.5.0.202105191637\\eclipse\\arm-gcc-49\\arm-none-eabi\\include\\stdint.h"
 509              	 .file 6 "C:/work_mari/XMC4800/UART/Libraries/XMCLib/inc/xmc_gpio.h"
 510              	 .file 7 "C:/work_mari/XMC4800/UART/Libraries/XMCLib/inc/xmc4_gpio.h"
 511              	 .file 8 "../Dave/Generated/UART/uart.h"
 512              	 .file 9 "C:/work_mari/XMC4800/UART/Libraries/CMSIS/Include/cmsis_gcc.h"
 513              	 .file 10 "C:/work_mari/XMC4800/UART/Libraries/CMSIS/Include/core_cm4.h"
 514              	 .file 11 "C:/work_mari/XMC4800/UART/Libraries/CMSIS/Infineon/XMC4800_series/Include/system_XMC4800.h"