   1              	 .syntax unified
   2              	 .cpu cortex-m4
   3              	 .eabi_attribute 27,3
   4              	 .fpu fpv4-sp-d16
   5              	 .eabi_attribute 20,1
   6              	 .eabi_attribute 21,1
   7              	 .eabi_attribute 23,3
   8              	 .eabi_attribute 24,1
   9              	 .eabi_attribute 25,1
  10              	 .eabi_attribute 26,1
  11              	 .eabi_attribute 30,6
  12              	 .eabi_attribute 34,1
  13              	 .eabi_attribute 18,4
  14              	 .thumb
  15              	 .file "global_dma_conf.c"
  16              	 .text
  17              	.Ltext0:
  18              	 .cfi_sections .debug_frame
  19              	 .global GLOBAL_DMA_0_CONFIG
  20              	 .section .data.GLOBAL_DMA_0_CONFIG,"aw",%progbits
  21              	 .align 2
  24              	GLOBAL_DMA_0_CONFIG:
  25 0000 3F       	 .byte 63
  26 0001 00       	 .byte 0
  27              	 .global GLOBAL_DMA_0
  28 0002 0000     	 .section .data.GLOBAL_DMA_0,"aw",%progbits
  29              	 .align 2
  32              	GLOBAL_DMA_0:
  33 0000 00800150 	 .word 1342275584
  34 0004 00000000 	 .word GLOBAL_DMA_0_CONFIG
  35 0008 00       	 .byte 0
  36 0009 6E       	 .byte 110
  37 000a 0000     	 .space 2
  38              	 .section .text.GPDMA0_0_IRQHandler,"ax",%progbits
  39              	 .align 2
  40              	 .global GPDMA0_0_IRQHandler
  41              	 .thumb
  42              	 .thumb_func
  44              	GPDMA0_0_IRQHandler:
  45              	.LFB148:
  46              	 .file 1 "../Dave/Generated/GLOBAL_DMA/global_dma_conf.c"
   1:../Dave/Generated/GLOBAL_DMA/global_dma_conf.c **** /**************************************************************************************************
   2:../Dave/Generated/GLOBAL_DMA/global_dma_conf.c **** * DAVE APP Name : GLOBAL_DMA       APP Version: 4.0.10
   3:../Dave/Generated/GLOBAL_DMA/global_dma_conf.c **** *
   4:../Dave/Generated/GLOBAL_DMA/global_dma_conf.c **** * NOTE:
   5:../Dave/Generated/GLOBAL_DMA/global_dma_conf.c **** * This file is generated by DAVE. Any manual modification done to this file will be lost when the c
   6:../Dave/Generated/GLOBAL_DMA/global_dma_conf.c **** ***************************************************************************************************
   7:../Dave/Generated/GLOBAL_DMA/global_dma_conf.c **** 
   8:../Dave/Generated/GLOBAL_DMA/global_dma_conf.c **** /**
   9:../Dave/Generated/GLOBAL_DMA/global_dma_conf.c ****  * @cond
  10:../Dave/Generated/GLOBAL_DMA/global_dma_conf.c ****  **************************************************************************************************
  11:../Dave/Generated/GLOBAL_DMA/global_dma_conf.c ****  * Copyright (c) 2015-2020, Infineon Technologies AG
  12:../Dave/Generated/GLOBAL_DMA/global_dma_conf.c ****  * All rights reserved.
  13:../Dave/Generated/GLOBAL_DMA/global_dma_conf.c ****  *
  14:../Dave/Generated/GLOBAL_DMA/global_dma_conf.c ****  * Redistribution and use in source and binary forms, with or without modification,are permitted pr
  15:../Dave/Generated/GLOBAL_DMA/global_dma_conf.c ****  * following conditions are met:
  16:../Dave/Generated/GLOBAL_DMA/global_dma_conf.c ****  *
  17:../Dave/Generated/GLOBAL_DMA/global_dma_conf.c ****  *   Redistributions of source code must retain the above copyright notice, this list of conditions
  18:../Dave/Generated/GLOBAL_DMA/global_dma_conf.c ****  *   disclaimer.
  19:../Dave/Generated/GLOBAL_DMA/global_dma_conf.c ****  *
  20:../Dave/Generated/GLOBAL_DMA/global_dma_conf.c ****  *   Redistributions in binary form must reproduce the above copyright notice, this list of conditi
  21:../Dave/Generated/GLOBAL_DMA/global_dma_conf.c ****  *   following disclaimer in the documentation and/or other materials provided with the distributio
  22:../Dave/Generated/GLOBAL_DMA/global_dma_conf.c ****  *
  23:../Dave/Generated/GLOBAL_DMA/global_dma_conf.c ****  *   Neither the name of the copyright holders nor the names of its contributors may be used to end
  24:../Dave/Generated/GLOBAL_DMA/global_dma_conf.c ****  *   products derived from this software without specific prior written permission.
  25:../Dave/Generated/GLOBAL_DMA/global_dma_conf.c ****  *
  26:../Dave/Generated/GLOBAL_DMA/global_dma_conf.c ****  * THIS SOFTWARE IS PROVIDED BY THE COPYRIGHT HOLDERS AND CONTRIBUTORS "AS IS" AND ANY EXPRESS OR I
  27:../Dave/Generated/GLOBAL_DMA/global_dma_conf.c ****  * INCLUDING, BUT NOT LIMITED TO, THE IMPLIED WARRANTIES OF MERCHANTABILITY AND FITNESS FOR A PARTI
  28:../Dave/Generated/GLOBAL_DMA/global_dma_conf.c ****  * DISCLAIMED. IN NO EVENT SHALL THE COPYRIGHT HOLDER OR CONTRIBUTORS BE LIABLE  FOR ANY DIRECT, IN
  29:../Dave/Generated/GLOBAL_DMA/global_dma_conf.c ****  * SPECIAL, EXEMPLARY, OR CONSEQUENTIAL DAMAGES (INCLUDING, BUT NOT LIMITED TO, PROCUREMENT OF SUBS
  30:../Dave/Generated/GLOBAL_DMA/global_dma_conf.c ****  * SERVICES; LOSS OF USE, DATA, OR PROFITS; OR BUSINESS INTERRUPTION) HOWEVER CAUSED AND ON ANY THE
  31:../Dave/Generated/GLOBAL_DMA/global_dma_conf.c ****  * WHETHER IN CONTRACT, STRICT LIABILITY,OR TORT (INCLUDING NEGLIGENCE OR OTHERWISE) ARISING IN ANY
  32:../Dave/Generated/GLOBAL_DMA/global_dma_conf.c ****  * USE OF THIS SOFTWARE, EVEN IF ADVISED OF THE POSSIBILITY OF SUCH DAMAGE.
  33:../Dave/Generated/GLOBAL_DMA/global_dma_conf.c ****  *
  34:../Dave/Generated/GLOBAL_DMA/global_dma_conf.c ****  * To improve the quality of the software, users are encouraged to share modifications, enhancement
  35:../Dave/Generated/GLOBAL_DMA/global_dma_conf.c ****  * with Infineon Technologies AG (dave@infineon.com).
  36:../Dave/Generated/GLOBAL_DMA/global_dma_conf.c ****  **************************************************************************************************
  37:../Dave/Generated/GLOBAL_DMA/global_dma_conf.c ****  *
  38:../Dave/Generated/GLOBAL_DMA/global_dma_conf.c ****  * Change History
  39:../Dave/Generated/GLOBAL_DMA/global_dma_conf.c ****  * --------------
  40:../Dave/Generated/GLOBAL_DMA/global_dma_conf.c ****  *
  41:../Dave/Generated/GLOBAL_DMA/global_dma_conf.c ****  * 2015-02-20:
  42:../Dave/Generated/GLOBAL_DMA/global_dma_conf.c ****  *     - Initial version <br>
  43:../Dave/Generated/GLOBAL_DMA/global_dma_conf.c ****  *
  44:../Dave/Generated/GLOBAL_DMA/global_dma_conf.c ****  * @endcond
  45:../Dave/Generated/GLOBAL_DMA/global_dma_conf.c ****  */
  46:../Dave/Generated/GLOBAL_DMA/global_dma_conf.c **** 
  47:../Dave/Generated/GLOBAL_DMA/global_dma_conf.c **** /**************************************************************************************************
  48:../Dave/Generated/GLOBAL_DMA/global_dma_conf.c ****  * HEADER FILES
  49:../Dave/Generated/GLOBAL_DMA/global_dma_conf.c ****  **************************************************************************************************
  50:../Dave/Generated/GLOBAL_DMA/global_dma_conf.c **** 
  51:../Dave/Generated/GLOBAL_DMA/global_dma_conf.c **** #include "global_dma.h"
  52:../Dave/Generated/GLOBAL_DMA/global_dma_conf.c **** 
  53:../Dave/Generated/GLOBAL_DMA/global_dma_conf.c **** /**************************************************************************************************
  54:../Dave/Generated/GLOBAL_DMA/global_dma_conf.c ****  * DATA STRUCTURES
  55:../Dave/Generated/GLOBAL_DMA/global_dma_conf.c ****  **************************************************************************************************
  56:../Dave/Generated/GLOBAL_DMA/global_dma_conf.c **** 
  57:../Dave/Generated/GLOBAL_DMA/global_dma_conf.c **** GLOBAL_DMA_INTERRUPT_CONFIG_t GLOBAL_DMA_0_CONFIG =
  58:../Dave/Generated/GLOBAL_DMA/global_dma_conf.c **** {
  59:../Dave/Generated/GLOBAL_DMA/global_dma_conf.c ****   .priority = 63U, /* Node interrupt priority */
  60:../Dave/Generated/GLOBAL_DMA/global_dma_conf.c ****   .sub_priority = 0U  /* Node interrupt sub-priority */
  61:../Dave/Generated/GLOBAL_DMA/global_dma_conf.c **** };
  62:../Dave/Generated/GLOBAL_DMA/global_dma_conf.c **** 
  63:../Dave/Generated/GLOBAL_DMA/global_dma_conf.c **** GLOBAL_DMA_t GLOBAL_DMA_0 =
  64:../Dave/Generated/GLOBAL_DMA/global_dma_conf.c **** {
  65:../Dave/Generated/GLOBAL_DMA/global_dma_conf.c ****   .dma = XMC_DMA1, /* Which DMA module? */
  66:../Dave/Generated/GLOBAL_DMA/global_dma_conf.c ****   .config = &GLOBAL_DMA_0_CONFIG, /* A reference to interrupt config */
  67:../Dave/Generated/GLOBAL_DMA/global_dma_conf.c ****   .initialized = (bool)0U, /* Is DMA initialized yet? */
  68:../Dave/Generated/GLOBAL_DMA/global_dma_conf.c ****   .irq_node = (IRQn_Type)110U /* Allotted DMA IRQ node */
  69:../Dave/Generated/GLOBAL_DMA/global_dma_conf.c **** };
  70:../Dave/Generated/GLOBAL_DMA/global_dma_conf.c **** 
  71:../Dave/Generated/GLOBAL_DMA/global_dma_conf.c **** void GPDMA0_0_IRQHandler(void)
  72:../Dave/Generated/GLOBAL_DMA/global_dma_conf.c **** {
  47              	 .loc 1 72 0
  48              	 .cfi_startproc
  49              	 
  50              	 
  51 0000 80B5     	 push {r7,lr}
  52              	.LCFI0:
  53              	 .cfi_def_cfa_offset 8
  54              	 .cfi_offset 7,-8
  55              	 .cfi_offset 14,-4
  56 0002 00AF     	 add r7,sp,#0
  57              	.LCFI1:
  58              	 .cfi_def_cfa_register 7
  73:../Dave/Generated/GLOBAL_DMA/global_dma_conf.c ****   XMC_DMA_IRQHandler(XMC_DMA0);
  59              	 .loc 1 73 0
  60 0004 0148     	 ldr r0,.L2
  61 0006 FFF7FEFF 	 bl XMC_DMA_IRQHandler
  74:../Dave/Generated/GLOBAL_DMA/global_dma_conf.c **** }
  62              	 .loc 1 74 0
  63 000a 80BD     	 pop {r7,pc}
  64              	.L3:
  65              	 .align 2
  66              	.L2:
  67 000c 00400150 	 .word 1342259200
  68              	 .cfi_endproc
  69              	.LFE148:
  71              	 .section .text.GPDMA1_0_IRQHandler,"ax",%progbits
  72              	 .align 2
  73              	 .global GPDMA1_0_IRQHandler
  74              	 .thumb
  75              	 .thumb_func
  77              	GPDMA1_0_IRQHandler:
  78              	.LFB149:
  75:../Dave/Generated/GLOBAL_DMA/global_dma_conf.c **** 
  76:../Dave/Generated/GLOBAL_DMA/global_dma_conf.c **** #ifdef XMC_DMA1
  77:../Dave/Generated/GLOBAL_DMA/global_dma_conf.c **** void GPDMA1_0_IRQHandler(void)
  78:../Dave/Generated/GLOBAL_DMA/global_dma_conf.c **** {
  79              	 .loc 1 78 0
  80              	 .cfi_startproc
  81              	 
  82              	 
  83 0000 80B5     	 push {r7,lr}
  84              	.LCFI2:
  85              	 .cfi_def_cfa_offset 8
  86              	 .cfi_offset 7,-8
  87              	 .cfi_offset 14,-4
  88 0002 00AF     	 add r7,sp,#0
  89              	.LCFI3:
  90              	 .cfi_def_cfa_register 7
  79:../Dave/Generated/GLOBAL_DMA/global_dma_conf.c ****   XMC_DMA_IRQHandler(XMC_DMA1);
  91              	 .loc 1 79 0
  92 0004 0148     	 ldr r0,.L5
  93 0006 FFF7FEFF 	 bl XMC_DMA_IRQHandler
  80:../Dave/Generated/GLOBAL_DMA/global_dma_conf.c **** }
  94              	 .loc 1 80 0
  95 000a 80BD     	 pop {r7,pc}
  96              	.L6:
  97              	 .align 2
  98              	.L5:
  99 000c 00800150 	 .word 1342275584
 100              	 .cfi_endproc
 101              	.LFE149:
 103              	 .text
 104              	.Letext0:
 105              	 .file 2 "c:\\infineon\\tools\\dave ide\\4.5.0.202105191637\\eclipse\\arm-gcc-49\\arm-none-eabi\\include\\machine\\_default_types.h"
 106              	 .file 3 "c:\\infineon\\tools\\dave ide\\4.5.0.202105191637\\eclipse\\arm-gcc-49\\arm-none-eabi\\include\\stdint.h"
 107              	 .file 4 "C:/work_mari/XMC4800/common-tasks/DMA/Libraries/CMSIS/Infineon/XMC4800_series/Include/XMC4800.h"
 108              	 .file 5 "C:/work_mari/XMC4800/common-tasks/DMA/Libraries/XMCLib/inc/xmc_dma.h"
 109              	 .file 6 "../Dave/Generated/GLOBAL_DMA/global_dma.h"
 110              	 .file 7 "C:/work_mari/XMC4800/common-tasks/DMA/Libraries/CMSIS/Include/cmsis_gcc.h"
 111              	 .file 8 "C:/work_mari/XMC4800/common-tasks/DMA/Libraries/CMSIS/Include/core_cm4.h"