   1              	 .syntax unified
   2              	 .cpu cortex-m4
   3              	 .eabi_attribute 27,3
   4              	 .fpu fpv4-sp-d16
   5              	 .eabi_attribute 20,1
   6              	 .eabi_attribute 21,1
   7              	 .eabi_attribute 23,3
   8              	 .eabi_attribute 24,1
   9              	 .eabi_attribute 25,1
  10              	 .eabi_attribute 26,1
  11              	 .eabi_attribute 30,6
  12              	 .eabi_attribute 34,1
  13              	 .eabi_attribute 18,4
  14              	 .thumb
  15              	 .file "main.c"
  16              	 .text
  17              	.Ltext0:
  18              	 .cfi_sections .debug_frame
  19              	 .section .text.XMC_GPIO_SetOutputHigh,"ax",%progbits
  20              	 .align 2
  21              	 .thumb
  22              	 .thumb_func
  24              	XMC_GPIO_SetOutputHigh:
  25              	.LFB176:
  26              	 .file 1 "C:/work_mari/XMC4800/common-tasks/RTC/Libraries/XMCLib/inc/xmc_gpio.h"
   1:C:/work_mari/XMC4800/common-tasks/RTC/Libraries/XMCLib/inc\xmc_gpio.h **** /**
   2:C:/work_mari/XMC4800/common-tasks/RTC/Libraries/XMCLib/inc\xmc_gpio.h ****  * @file xmc_gpio.h
   3:C:/work_mari/XMC4800/common-tasks/RTC/Libraries/XMCLib/inc\xmc_gpio.h ****  * @date 2015-06-20
   4:C:/work_mari/XMC4800/common-tasks/RTC/Libraries/XMCLib/inc\xmc_gpio.h ****  *
   5:C:/work_mari/XMC4800/common-tasks/RTC/Libraries/XMCLib/inc\xmc_gpio.h ****  * @cond
   6:C:/work_mari/XMC4800/common-tasks/RTC/Libraries/XMCLib/inc\xmc_gpio.h ****  *****************************************************************************
   7:C:/work_mari/XMC4800/common-tasks/RTC/Libraries/XMCLib/inc\xmc_gpio.h ****  * XMClib v2.2.0 - XMC Peripheral Driver Library
   8:C:/work_mari/XMC4800/common-tasks/RTC/Libraries/XMCLib/inc\xmc_gpio.h ****  *
   9:C:/work_mari/XMC4800/common-tasks/RTC/Libraries/XMCLib/inc\xmc_gpio.h ****  * Copyright (c) 2015-2020, Infineon Technologies AG
  10:C:/work_mari/XMC4800/common-tasks/RTC/Libraries/XMCLib/inc\xmc_gpio.h ****  * All rights reserved.
  11:C:/work_mari/XMC4800/common-tasks/RTC/Libraries/XMCLib/inc\xmc_gpio.h ****  *
  12:C:/work_mari/XMC4800/common-tasks/RTC/Libraries/XMCLib/inc\xmc_gpio.h ****  * Boost Software License - Version 1.0 - August 17th, 2003
  13:C:/work_mari/XMC4800/common-tasks/RTC/Libraries/XMCLib/inc\xmc_gpio.h ****  *
  14:C:/work_mari/XMC4800/common-tasks/RTC/Libraries/XMCLib/inc\xmc_gpio.h ****  * Permission is hereby granted, free of charge, to any person or organization
  15:C:/work_mari/XMC4800/common-tasks/RTC/Libraries/XMCLib/inc\xmc_gpio.h ****  * obtaining a copy of the software and accompanying documentation covered by
  16:C:/work_mari/XMC4800/common-tasks/RTC/Libraries/XMCLib/inc\xmc_gpio.h ****  * this license (the "Software") to use, reproduce, display, distribute,
  17:C:/work_mari/XMC4800/common-tasks/RTC/Libraries/XMCLib/inc\xmc_gpio.h ****  * execute, and transmit the Software, and to prepare derivative works of the
  18:C:/work_mari/XMC4800/common-tasks/RTC/Libraries/XMCLib/inc\xmc_gpio.h ****  * Software, and to permit third-parties to whom the Software is furnished to
  19:C:/work_mari/XMC4800/common-tasks/RTC/Libraries/XMCLib/inc\xmc_gpio.h ****  * do so, all subject to the following:
  20:C:/work_mari/XMC4800/common-tasks/RTC/Libraries/XMCLib/inc\xmc_gpio.h ****  *
  21:C:/work_mari/XMC4800/common-tasks/RTC/Libraries/XMCLib/inc\xmc_gpio.h ****  * The copyright notices in the Software and this entire statement, including
  22:C:/work_mari/XMC4800/common-tasks/RTC/Libraries/XMCLib/inc\xmc_gpio.h ****  * the above license grant, this restriction and the following disclaimer,
  23:C:/work_mari/XMC4800/common-tasks/RTC/Libraries/XMCLib/inc\xmc_gpio.h ****  * must be included in all copies of the Software, in whole or in part, and
  24:C:/work_mari/XMC4800/common-tasks/RTC/Libraries/XMCLib/inc\xmc_gpio.h ****  * all derivative works of the Software, unless such copies or derivative
  25:C:/work_mari/XMC4800/common-tasks/RTC/Libraries/XMCLib/inc\xmc_gpio.h ****  * works are solely in the form of machine-executable object code generated by
  26:C:/work_mari/XMC4800/common-tasks/RTC/Libraries/XMCLib/inc\xmc_gpio.h ****  * a source language processor.
  27:C:/work_mari/XMC4800/common-tasks/RTC/Libraries/XMCLib/inc\xmc_gpio.h ****  *
  28:C:/work_mari/XMC4800/common-tasks/RTC/Libraries/XMCLib/inc\xmc_gpio.h ****  * THE SOFTWARE IS PROVIDED "AS IS", WITHOUT WARRANTY OF ANY KIND, EXPRESS OR
  29:C:/work_mari/XMC4800/common-tasks/RTC/Libraries/XMCLib/inc\xmc_gpio.h ****  * IMPLIED, INCLUDING BUT NOT LIMITED TO THE WARRANTIES OF MERCHANTABILITY,
  30:C:/work_mari/XMC4800/common-tasks/RTC/Libraries/XMCLib/inc\xmc_gpio.h ****  * FITNESS FOR A PARTICULAR PURPOSE, TITLE AND NON-INFRINGEMENT. IN NO EVENT
  31:C:/work_mari/XMC4800/common-tasks/RTC/Libraries/XMCLib/inc\xmc_gpio.h ****  * SHALL THE COPYRIGHT HOLDERS OR ANYONE DISTRIBUTING THE SOFTWARE BE LIABLE
  32:C:/work_mari/XMC4800/common-tasks/RTC/Libraries/XMCLib/inc\xmc_gpio.h ****  * FOR ANY DAMAGES OR OTHER LIABILITY, WHETHER IN CONTRACT, TORT OR OTHERWISE,
  33:C:/work_mari/XMC4800/common-tasks/RTC/Libraries/XMCLib/inc\xmc_gpio.h ****  * ARISING FROM, OUT OF OR IN CONNECTION WITH THE SOFTWARE OR THE USE OR OTHER
  34:C:/work_mari/XMC4800/common-tasks/RTC/Libraries/XMCLib/inc\xmc_gpio.h ****  * DEALINGS IN THE SOFTWARE.
  35:C:/work_mari/XMC4800/common-tasks/RTC/Libraries/XMCLib/inc\xmc_gpio.h ****  *
  36:C:/work_mari/XMC4800/common-tasks/RTC/Libraries/XMCLib/inc\xmc_gpio.h ****  * To improve the quality of the software, users are encouraged to share
  37:C:/work_mari/XMC4800/common-tasks/RTC/Libraries/XMCLib/inc\xmc_gpio.h ****  * modifications, enhancements or bug fixes with Infineon Technologies AG
  38:C:/work_mari/XMC4800/common-tasks/RTC/Libraries/XMCLib/inc\xmc_gpio.h ****  * at XMCSupport@infineon.com.
  39:C:/work_mari/XMC4800/common-tasks/RTC/Libraries/XMCLib/inc\xmc_gpio.h ****  *****************************************************************************
  40:C:/work_mari/XMC4800/common-tasks/RTC/Libraries/XMCLib/inc\xmc_gpio.h ****  *
  41:C:/work_mari/XMC4800/common-tasks/RTC/Libraries/XMCLib/inc\xmc_gpio.h ****  * Change History
  42:C:/work_mari/XMC4800/common-tasks/RTC/Libraries/XMCLib/inc\xmc_gpio.h ****  * --------------
  43:C:/work_mari/XMC4800/common-tasks/RTC/Libraries/XMCLib/inc\xmc_gpio.h ****  *
  44:C:/work_mari/XMC4800/common-tasks/RTC/Libraries/XMCLib/inc\xmc_gpio.h ****  * 2015-02-20:
  45:C:/work_mari/XMC4800/common-tasks/RTC/Libraries/XMCLib/inc\xmc_gpio.h ****  *     - Initial draft<br>
  46:C:/work_mari/XMC4800/common-tasks/RTC/Libraries/XMCLib/inc\xmc_gpio.h ****  *     - Documentation improved <br>
  47:C:/work_mari/XMC4800/common-tasks/RTC/Libraries/XMCLib/inc\xmc_gpio.h ****  *
  48:C:/work_mari/XMC4800/common-tasks/RTC/Libraries/XMCLib/inc\xmc_gpio.h ****  * 2015-06-20:
  49:C:/work_mari/XMC4800/common-tasks/RTC/Libraries/XMCLib/inc\xmc_gpio.h ****  *     - Removed version macros and declaration of GetDriverVersion API
  50:C:/work_mari/XMC4800/common-tasks/RTC/Libraries/XMCLib/inc\xmc_gpio.h ****  *
  51:C:/work_mari/XMC4800/common-tasks/RTC/Libraries/XMCLib/inc\xmc_gpio.h ****  * @endcond
  52:C:/work_mari/XMC4800/common-tasks/RTC/Libraries/XMCLib/inc\xmc_gpio.h ****  *
  53:C:/work_mari/XMC4800/common-tasks/RTC/Libraries/XMCLib/inc\xmc_gpio.h ****  */
  54:C:/work_mari/XMC4800/common-tasks/RTC/Libraries/XMCLib/inc\xmc_gpio.h **** 
  55:C:/work_mari/XMC4800/common-tasks/RTC/Libraries/XMCLib/inc\xmc_gpio.h **** #ifndef XMC_GPIO_H
  56:C:/work_mari/XMC4800/common-tasks/RTC/Libraries/XMCLib/inc\xmc_gpio.h **** #define XMC_GPIO_H
  57:C:/work_mari/XMC4800/common-tasks/RTC/Libraries/XMCLib/inc\xmc_gpio.h **** 
  58:C:/work_mari/XMC4800/common-tasks/RTC/Libraries/XMCLib/inc\xmc_gpio.h **** /**************************************************************************************************
  59:C:/work_mari/XMC4800/common-tasks/RTC/Libraries/XMCLib/inc\xmc_gpio.h ****  * HEADER FILES
  60:C:/work_mari/XMC4800/common-tasks/RTC/Libraries/XMCLib/inc\xmc_gpio.h ****  **************************************************************************************************
  61:C:/work_mari/XMC4800/common-tasks/RTC/Libraries/XMCLib/inc\xmc_gpio.h **** 
  62:C:/work_mari/XMC4800/common-tasks/RTC/Libraries/XMCLib/inc\xmc_gpio.h **** #include "xmc_common.h"
  63:C:/work_mari/XMC4800/common-tasks/RTC/Libraries/XMCLib/inc\xmc_gpio.h **** 
  64:C:/work_mari/XMC4800/common-tasks/RTC/Libraries/XMCLib/inc\xmc_gpio.h **** /**
  65:C:/work_mari/XMC4800/common-tasks/RTC/Libraries/XMCLib/inc\xmc_gpio.h ****  * @addtogroup XMClib XMC Peripheral Library
  66:C:/work_mari/XMC4800/common-tasks/RTC/Libraries/XMCLib/inc\xmc_gpio.h ****  * @{
  67:C:/work_mari/XMC4800/common-tasks/RTC/Libraries/XMCLib/inc\xmc_gpio.h ****  */
  68:C:/work_mari/XMC4800/common-tasks/RTC/Libraries/XMCLib/inc\xmc_gpio.h **** 
  69:C:/work_mari/XMC4800/common-tasks/RTC/Libraries/XMCLib/inc\xmc_gpio.h **** /**
  70:C:/work_mari/XMC4800/common-tasks/RTC/Libraries/XMCLib/inc\xmc_gpio.h ****  * @addtogroup GPIO
  71:C:/work_mari/XMC4800/common-tasks/RTC/Libraries/XMCLib/inc\xmc_gpio.h ****  * @brief General Purpose Input Output (GPIO) driver for the XMC microcontroller family.
  72:C:/work_mari/XMC4800/common-tasks/RTC/Libraries/XMCLib/inc\xmc_gpio.h ****  *
  73:C:/work_mari/XMC4800/common-tasks/RTC/Libraries/XMCLib/inc\xmc_gpio.h ****  * GPIO driver provide a generic and very flexible software interface for all standard digital I/O 
  74:C:/work_mari/XMC4800/common-tasks/RTC/Libraries/XMCLib/inc\xmc_gpio.h ****  * Each port slice has individual interfaces for the operation as General Purpose I/O and it furthe
  75:C:/work_mari/XMC4800/common-tasks/RTC/Libraries/XMCLib/inc\xmc_gpio.h ****  * connectivity to the on-chip periphery and the control for the pad characteristics.
  76:C:/work_mari/XMC4800/common-tasks/RTC/Libraries/XMCLib/inc\xmc_gpio.h ****  *
  77:C:/work_mari/XMC4800/common-tasks/RTC/Libraries/XMCLib/inc\xmc_gpio.h ****  * The driver is divided into Input and Output mode.
  78:C:/work_mari/XMC4800/common-tasks/RTC/Libraries/XMCLib/inc\xmc_gpio.h ****  *
  79:C:/work_mari/XMC4800/common-tasks/RTC/Libraries/XMCLib/inc\xmc_gpio.h ****  * Input mode features:
  80:C:/work_mari/XMC4800/common-tasks/RTC/Libraries/XMCLib/inc\xmc_gpio.h ****  * -# Configuration structure XMC_GPIO_CONFIG_t and initialization function XMC_GPIO_Init()
  81:C:/work_mari/XMC4800/common-tasks/RTC/Libraries/XMCLib/inc\xmc_gpio.h ****  * -# Allows the selection of weak pull-up or pull-down device. Configuration structure XMC_GPIO_MO
  82:C:/work_mari/XMC4800/common-tasks/RTC/Libraries/XMCLib/inc\xmc_gpio.h ****  * \if XMC1
  83:C:/work_mari/XMC4800/common-tasks/RTC/Libraries/XMCLib/inc\xmc_gpio.h ****  * -# Allows the selection of input hysteresis. XMC_GPIO_SetInputHysteresis()
  84:C:/work_mari/XMC4800/common-tasks/RTC/Libraries/XMCLib/inc\xmc_gpio.h ****  * \endif
  85:C:/work_mari/XMC4800/common-tasks/RTC/Libraries/XMCLib/inc\xmc_gpio.h ****  *
  86:C:/work_mari/XMC4800/common-tasks/RTC/Libraries/XMCLib/inc\xmc_gpio.h ****  *
  87:C:/work_mari/XMC4800/common-tasks/RTC/Libraries/XMCLib/inc\xmc_gpio.h ****  * Output mode features:
  88:C:/work_mari/XMC4800/common-tasks/RTC/Libraries/XMCLib/inc\xmc_gpio.h ****  * -# Allows the selection of push pull/open drain and Alternate output. Configuration structure XM
  89:C:/work_mari/XMC4800/common-tasks/RTC/Libraries/XMCLib/inc\xmc_gpio.h ****  * \if XMC4
  90:C:/work_mari/XMC4800/common-tasks/RTC/Libraries/XMCLib/inc\xmc_gpio.h ****  * -# Allows the selection of pad driver strength. Configuration structure XMC_GPIO_OUTPUT_STRENGTH
  91:C:/work_mari/XMC4800/common-tasks/RTC/Libraries/XMCLib/inc\xmc_gpio.h ****  * \endif
  92:C:/work_mari/XMC4800/common-tasks/RTC/Libraries/XMCLib/inc\xmc_gpio.h ****  *
  93:C:/work_mari/XMC4800/common-tasks/RTC/Libraries/XMCLib/inc\xmc_gpio.h ****  * -# Allows the selection of initial output level. Configuration structure XMC_GPIO_OUTPUT_LEVEL_t
  94:C:/work_mari/XMC4800/common-tasks/RTC/Libraries/XMCLib/inc\xmc_gpio.h ****  *
  95:C:/work_mari/XMC4800/common-tasks/RTC/Libraries/XMCLib/inc\xmc_gpio.h ****  *@{
  96:C:/work_mari/XMC4800/common-tasks/RTC/Libraries/XMCLib/inc\xmc_gpio.h ****  */
  97:C:/work_mari/XMC4800/common-tasks/RTC/Libraries/XMCLib/inc\xmc_gpio.h **** 
  98:C:/work_mari/XMC4800/common-tasks/RTC/Libraries/XMCLib/inc\xmc_gpio.h **** /**************************************************************************************************
  99:C:/work_mari/XMC4800/common-tasks/RTC/Libraries/XMCLib/inc\xmc_gpio.h ****  * MACROS
 100:C:/work_mari/XMC4800/common-tasks/RTC/Libraries/XMCLib/inc\xmc_gpio.h ****  **************************************************************************************************
 101:C:/work_mari/XMC4800/common-tasks/RTC/Libraries/XMCLib/inc\xmc_gpio.h **** 
 102:C:/work_mari/XMC4800/common-tasks/RTC/Libraries/XMCLib/inc\xmc_gpio.h **** #define PORT_IOCR_PC_Pos PORT0_IOCR0_PC0_Pos
 103:C:/work_mari/XMC4800/common-tasks/RTC/Libraries/XMCLib/inc\xmc_gpio.h **** #define PORT_IOCR_PC_Msk PORT0_IOCR0_PC0_Msk
 104:C:/work_mari/XMC4800/common-tasks/RTC/Libraries/XMCLib/inc\xmc_gpio.h **** 
 105:C:/work_mari/XMC4800/common-tasks/RTC/Libraries/XMCLib/inc\xmc_gpio.h **** #define PORT_IOCR_PC_Size 				(8U)
 106:C:/work_mari/XMC4800/common-tasks/RTC/Libraries/XMCLib/inc\xmc_gpio.h **** 
 107:C:/work_mari/XMC4800/common-tasks/RTC/Libraries/XMCLib/inc\xmc_gpio.h **** 
 108:C:/work_mari/XMC4800/common-tasks/RTC/Libraries/XMCLib/inc\xmc_gpio.h **** #define XMC_GPIO_CHECK_OUTPUT_LEVEL(level) ((level == XMC_GPIO_OUTPUT_LEVEL_LOW) || \
 109:C:/work_mari/XMC4800/common-tasks/RTC/Libraries/XMCLib/inc\xmc_gpio.h ****                                             (level == XMC_GPIO_OUTPUT_LEVEL_HIGH))
 110:C:/work_mari/XMC4800/common-tasks/RTC/Libraries/XMCLib/inc\xmc_gpio.h **** 
 111:C:/work_mari/XMC4800/common-tasks/RTC/Libraries/XMCLib/inc\xmc_gpio.h **** #define XMC_GPIO_CHECK_HWCTRL(hwctrl) ((hwctrl == XMC_GPIO_HWCTRL_DISABLED) || \
 112:C:/work_mari/XMC4800/common-tasks/RTC/Libraries/XMCLib/inc\xmc_gpio.h ****                                        (hwctrl == XMC_GPIO_HWCTRL_PERIPHERAL1) || \
 113:C:/work_mari/XMC4800/common-tasks/RTC/Libraries/XMCLib/inc\xmc_gpio.h ****                                        (hwctrl == XMC_GPIO_HWCTRL_PERIPHERAL2))
 114:C:/work_mari/XMC4800/common-tasks/RTC/Libraries/XMCLib/inc\xmc_gpio.h **** 
 115:C:/work_mari/XMC4800/common-tasks/RTC/Libraries/XMCLib/inc\xmc_gpio.h **** /**************************************************************************************************
 116:C:/work_mari/XMC4800/common-tasks/RTC/Libraries/XMCLib/inc\xmc_gpio.h ****  * ENUMS
 117:C:/work_mari/XMC4800/common-tasks/RTC/Libraries/XMCLib/inc\xmc_gpio.h ****  **************************************************************************************************
 118:C:/work_mari/XMC4800/common-tasks/RTC/Libraries/XMCLib/inc\xmc_gpio.h **** 
 119:C:/work_mari/XMC4800/common-tasks/RTC/Libraries/XMCLib/inc\xmc_gpio.h **** 
 120:C:/work_mari/XMC4800/common-tasks/RTC/Libraries/XMCLib/inc\xmc_gpio.h **** /**
 121:C:/work_mari/XMC4800/common-tasks/RTC/Libraries/XMCLib/inc\xmc_gpio.h ****  * Defines output level of a pin. Use type \a XMC_GPIO_OUTPUT_LEVEL_t for this enum.
 122:C:/work_mari/XMC4800/common-tasks/RTC/Libraries/XMCLib/inc\xmc_gpio.h ****  */
 123:C:/work_mari/XMC4800/common-tasks/RTC/Libraries/XMCLib/inc\xmc_gpio.h **** typedef enum XMC_GPIO_OUTPUT_LEVEL
 124:C:/work_mari/XMC4800/common-tasks/RTC/Libraries/XMCLib/inc\xmc_gpio.h **** {
 125:C:/work_mari/XMC4800/common-tasks/RTC/Libraries/XMCLib/inc\xmc_gpio.h ****   XMC_GPIO_OUTPUT_LEVEL_LOW  = 0x10000U, /**<  Reset bit */
 126:C:/work_mari/XMC4800/common-tasks/RTC/Libraries/XMCLib/inc\xmc_gpio.h ****   XMC_GPIO_OUTPUT_LEVEL_HIGH = 0x1U, 	/**< Set bit  */
 127:C:/work_mari/XMC4800/common-tasks/RTC/Libraries/XMCLib/inc\xmc_gpio.h **** } XMC_GPIO_OUTPUT_LEVEL_t;
 128:C:/work_mari/XMC4800/common-tasks/RTC/Libraries/XMCLib/inc\xmc_gpio.h **** 
 129:C:/work_mari/XMC4800/common-tasks/RTC/Libraries/XMCLib/inc\xmc_gpio.h **** /**
 130:C:/work_mari/XMC4800/common-tasks/RTC/Libraries/XMCLib/inc\xmc_gpio.h ****  * Defines direct hardware control characteristics of the pin . Use type \a XMC_GPIO_HWCTRL_t for t
 131:C:/work_mari/XMC4800/common-tasks/RTC/Libraries/XMCLib/inc\xmc_gpio.h ****  */
 132:C:/work_mari/XMC4800/common-tasks/RTC/Libraries/XMCLib/inc\xmc_gpio.h **** typedef enum XMC_GPIO_HWCTRL
 133:C:/work_mari/XMC4800/common-tasks/RTC/Libraries/XMCLib/inc\xmc_gpio.h **** {
 134:C:/work_mari/XMC4800/common-tasks/RTC/Libraries/XMCLib/inc\xmc_gpio.h ****   XMC_GPIO_HWCTRL_DISABLED     = 0x0U, /**<  Software control only */
 135:C:/work_mari/XMC4800/common-tasks/RTC/Libraries/XMCLib/inc\xmc_gpio.h ****   XMC_GPIO_HWCTRL_PERIPHERAL1  = 0x1U, /**<  HWI0/HWO0 control path can override the software confi
 136:C:/work_mari/XMC4800/common-tasks/RTC/Libraries/XMCLib/inc\xmc_gpio.h ****   XMC_GPIO_HWCTRL_PERIPHERAL2  = 0x2U  /**<  HWI1/HWO1 control path can override the software confi
 137:C:/work_mari/XMC4800/common-tasks/RTC/Libraries/XMCLib/inc\xmc_gpio.h **** } XMC_GPIO_HWCTRL_t;
 138:C:/work_mari/XMC4800/common-tasks/RTC/Libraries/XMCLib/inc\xmc_gpio.h **** 
 139:C:/work_mari/XMC4800/common-tasks/RTC/Libraries/XMCLib/inc\xmc_gpio.h **** /**************************************************************************************************
 140:C:/work_mari/XMC4800/common-tasks/RTC/Libraries/XMCLib/inc\xmc_gpio.h ****  * DEVICE FAMILY EXTENSIONS
 141:C:/work_mari/XMC4800/common-tasks/RTC/Libraries/XMCLib/inc\xmc_gpio.h ****  **************************************************************************************************
 142:C:/work_mari/XMC4800/common-tasks/RTC/Libraries/XMCLib/inc\xmc_gpio.h **** 
 143:C:/work_mari/XMC4800/common-tasks/RTC/Libraries/XMCLib/inc\xmc_gpio.h **** #if UC_FAMILY == XMC1
 144:C:/work_mari/XMC4800/common-tasks/RTC/Libraries/XMCLib/inc\xmc_gpio.h **** #include "xmc1_gpio.h"
 145:C:/work_mari/XMC4800/common-tasks/RTC/Libraries/XMCLib/inc\xmc_gpio.h **** #elif UC_FAMILY == XMC4
 146:C:/work_mari/XMC4800/common-tasks/RTC/Libraries/XMCLib/inc\xmc_gpio.h **** #include "xmc4_gpio.h"
 147:C:/work_mari/XMC4800/common-tasks/RTC/Libraries/XMCLib/inc\xmc_gpio.h **** #else
 148:C:/work_mari/XMC4800/common-tasks/RTC/Libraries/XMCLib/inc\xmc_gpio.h **** #error "xmc_gpio.h: family device not supported"
 149:C:/work_mari/XMC4800/common-tasks/RTC/Libraries/XMCLib/inc\xmc_gpio.h **** #endif
 150:C:/work_mari/XMC4800/common-tasks/RTC/Libraries/XMCLib/inc\xmc_gpio.h **** 
 151:C:/work_mari/XMC4800/common-tasks/RTC/Libraries/XMCLib/inc\xmc_gpio.h **** /**************************************************************************************************
 152:C:/work_mari/XMC4800/common-tasks/RTC/Libraries/XMCLib/inc\xmc_gpio.h ****  * API PROTOTYPES
 153:C:/work_mari/XMC4800/common-tasks/RTC/Libraries/XMCLib/inc\xmc_gpio.h ****  **************************************************************************************************
 154:C:/work_mari/XMC4800/common-tasks/RTC/Libraries/XMCLib/inc\xmc_gpio.h **** 
 155:C:/work_mari/XMC4800/common-tasks/RTC/Libraries/XMCLib/inc\xmc_gpio.h **** #ifdef __cplusplus
 156:C:/work_mari/XMC4800/common-tasks/RTC/Libraries/XMCLib/inc\xmc_gpio.h **** extern "C" {
 157:C:/work_mari/XMC4800/common-tasks/RTC/Libraries/XMCLib/inc\xmc_gpio.h **** #endif
 158:C:/work_mari/XMC4800/common-tasks/RTC/Libraries/XMCLib/inc\xmc_gpio.h **** 
 159:C:/work_mari/XMC4800/common-tasks/RTC/Libraries/XMCLib/inc\xmc_gpio.h **** 
 160:C:/work_mari/XMC4800/common-tasks/RTC/Libraries/XMCLib/inc\xmc_gpio.h **** /**
 161:C:/work_mari/XMC4800/common-tasks/RTC/Libraries/XMCLib/inc\xmc_gpio.h ****  * @param  port	  Constant pointer pointing to GPIO port, to access port registers like Pn_OUT,Pn_O
 162:C:/work_mari/XMC4800/common-tasks/RTC/Libraries/XMCLib/inc\xmc_gpio.h ****  * @param  pin	  Port pin number.
 163:C:/work_mari/XMC4800/common-tasks/RTC/Libraries/XMCLib/inc\xmc_gpio.h ****  * @param  config GPIO configuration data structure. Refer data structure @ref XMC_GPIO_CONFIG_t fo
 164:C:/work_mari/XMC4800/common-tasks/RTC/Libraries/XMCLib/inc\xmc_gpio.h ****  *
 165:C:/work_mari/XMC4800/common-tasks/RTC/Libraries/XMCLib/inc\xmc_gpio.h ****  * @return None
 166:C:/work_mari/XMC4800/common-tasks/RTC/Libraries/XMCLib/inc\xmc_gpio.h ****  *
 167:C:/work_mari/XMC4800/common-tasks/RTC/Libraries/XMCLib/inc\xmc_gpio.h ****  * \par<b>Description:</b><br>
 168:C:/work_mari/XMC4800/common-tasks/RTC/Libraries/XMCLib/inc\xmc_gpio.h ****  * \if XMC1
 169:C:/work_mari/XMC4800/common-tasks/RTC/Libraries/XMCLib/inc\xmc_gpio.h ****  * Initializes input / output mode settings like, pull up / pull down devices,hysteresis, push pull
 170:C:/work_mari/XMC4800/common-tasks/RTC/Libraries/XMCLib/inc\xmc_gpio.h ****  * Also configures alternate function outputs and clears hardware port control for a selected \a po
 171:C:/work_mari/XMC4800/common-tasks/RTC/Libraries/XMCLib/inc\xmc_gpio.h ****  * \a config provides selected I/O settings. It configures hardware registers Pn_IOCR,Pn_OUT, Pn_OM
 172:C:/work_mari/XMC4800/common-tasks/RTC/Libraries/XMCLib/inc\xmc_gpio.h ****  * \endif
 173:C:/work_mari/XMC4800/common-tasks/RTC/Libraries/XMCLib/inc\xmc_gpio.h ****  * \if XMC4
 174:C:/work_mari/XMC4800/common-tasks/RTC/Libraries/XMCLib/inc\xmc_gpio.h ****  * Initializes input / output mode settings like, pull up / pull down devices,push pull /open drain
 175:C:/work_mari/XMC4800/common-tasks/RTC/Libraries/XMCLib/inc\xmc_gpio.h ****  * Also configures alternate function outputs and clears hardware port control for selected \a port
 176:C:/work_mari/XMC4800/common-tasks/RTC/Libraries/XMCLib/inc\xmc_gpio.h ****  * It configures hardware registers Pn_IOCR,Pn_OUT,Pn_OMR,Pn_PDISC and Pn_PDR.\n
 177:C:/work_mari/XMC4800/common-tasks/RTC/Libraries/XMCLib/inc\xmc_gpio.h ****  * \endif
 178:C:/work_mari/XMC4800/common-tasks/RTC/Libraries/XMCLib/inc\xmc_gpio.h ****  *
 179:C:/work_mari/XMC4800/common-tasks/RTC/Libraries/XMCLib/inc\xmc_gpio.h ****  * \par<b>Related APIs:</b><BR>
 180:C:/work_mari/XMC4800/common-tasks/RTC/Libraries/XMCLib/inc\xmc_gpio.h ****  *  None
 181:C:/work_mari/XMC4800/common-tasks/RTC/Libraries/XMCLib/inc\xmc_gpio.h ****  *
 182:C:/work_mari/XMC4800/common-tasks/RTC/Libraries/XMCLib/inc\xmc_gpio.h ****  * \par<b>Note:</b><br>
 183:C:/work_mari/XMC4800/common-tasks/RTC/Libraries/XMCLib/inc\xmc_gpio.h ****  * This API is called in definition of DAVE_init by code generation and therefore should not be exp
 184:C:/work_mari/XMC4800/common-tasks/RTC/Libraries/XMCLib/inc\xmc_gpio.h ****  * for the normal operation. Use other APIs only after DAVE_init is called successfully (returns DA
 185:C:/work_mari/XMC4800/common-tasks/RTC/Libraries/XMCLib/inc\xmc_gpio.h ****  *
 186:C:/work_mari/XMC4800/common-tasks/RTC/Libraries/XMCLib/inc\xmc_gpio.h ****  *
 187:C:/work_mari/XMC4800/common-tasks/RTC/Libraries/XMCLib/inc\xmc_gpio.h ****  */
 188:C:/work_mari/XMC4800/common-tasks/RTC/Libraries/XMCLib/inc\xmc_gpio.h **** 
 189:C:/work_mari/XMC4800/common-tasks/RTC/Libraries/XMCLib/inc\xmc_gpio.h **** 
 190:C:/work_mari/XMC4800/common-tasks/RTC/Libraries/XMCLib/inc\xmc_gpio.h **** void XMC_GPIO_Init(XMC_GPIO_PORT_t *const port, const uint8_t pin, const XMC_GPIO_CONFIG_t *const c
 191:C:/work_mari/XMC4800/common-tasks/RTC/Libraries/XMCLib/inc\xmc_gpio.h **** 
 192:C:/work_mari/XMC4800/common-tasks/RTC/Libraries/XMCLib/inc\xmc_gpio.h **** /**
 193:C:/work_mari/XMC4800/common-tasks/RTC/Libraries/XMCLib/inc\xmc_gpio.h ****  *
 194:C:/work_mari/XMC4800/common-tasks/RTC/Libraries/XMCLib/inc\xmc_gpio.h ****  * @param  port	Constant pointer pointing to GPIO port, to access hardware register Pn_IOCR.
 195:C:/work_mari/XMC4800/common-tasks/RTC/Libraries/XMCLib/inc\xmc_gpio.h ****  * @param  pin	Port pin number.
 196:C:/work_mari/XMC4800/common-tasks/RTC/Libraries/XMCLib/inc\xmc_gpio.h ****  * @param  mode input / output functionality selection. Refer @ref XMC_GPIO_MODE_t for valid values
 197:C:/work_mari/XMC4800/common-tasks/RTC/Libraries/XMCLib/inc\xmc_gpio.h ****  *
 198:C:/work_mari/XMC4800/common-tasks/RTC/Libraries/XMCLib/inc\xmc_gpio.h ****  * @return None
 199:C:/work_mari/XMC4800/common-tasks/RTC/Libraries/XMCLib/inc\xmc_gpio.h ****  *
 200:C:/work_mari/XMC4800/common-tasks/RTC/Libraries/XMCLib/inc\xmc_gpio.h ****  * \par<b>Description:</b><br>
 201:C:/work_mari/XMC4800/common-tasks/RTC/Libraries/XMCLib/inc\xmc_gpio.h ****  * Sets digital input and output driver functionality and characteristics of a GPIO port pin. It co
 202:C:/work_mari/XMC4800/common-tasks/RTC/Libraries/XMCLib/inc\xmc_gpio.h ****  * registers Pn_IOCR. \a mode is initially configured during initialization in XMC_GPIO_Init(). Cal
 203:C:/work_mari/XMC4800/common-tasks/RTC/Libraries/XMCLib/inc\xmc_gpio.h ****  * the port direction functionality as needed later in the program.
 204:C:/work_mari/XMC4800/common-tasks/RTC/Libraries/XMCLib/inc\xmc_gpio.h ****  *
 205:C:/work_mari/XMC4800/common-tasks/RTC/Libraries/XMCLib/inc\xmc_gpio.h ****  * \par<b>Related APIs:</b><BR>
 206:C:/work_mari/XMC4800/common-tasks/RTC/Libraries/XMCLib/inc\xmc_gpio.h ****  *  None
 207:C:/work_mari/XMC4800/common-tasks/RTC/Libraries/XMCLib/inc\xmc_gpio.h ****  *
 208:C:/work_mari/XMC4800/common-tasks/RTC/Libraries/XMCLib/inc\xmc_gpio.h ****  */
 209:C:/work_mari/XMC4800/common-tasks/RTC/Libraries/XMCLib/inc\xmc_gpio.h **** 
 210:C:/work_mari/XMC4800/common-tasks/RTC/Libraries/XMCLib/inc\xmc_gpio.h **** void XMC_GPIO_SetMode(XMC_GPIO_PORT_t *const port, const uint8_t pin, const XMC_GPIO_MODE_t mode);
 211:C:/work_mari/XMC4800/common-tasks/RTC/Libraries/XMCLib/inc\xmc_gpio.h **** 
 212:C:/work_mari/XMC4800/common-tasks/RTC/Libraries/XMCLib/inc\xmc_gpio.h **** 
 213:C:/work_mari/XMC4800/common-tasks/RTC/Libraries/XMCLib/inc\xmc_gpio.h **** /**
 214:C:/work_mari/XMC4800/common-tasks/RTC/Libraries/XMCLib/inc\xmc_gpio.h ****  *
 215:C:/work_mari/XMC4800/common-tasks/RTC/Libraries/XMCLib/inc\xmc_gpio.h ****  * @param  port	 Constant pointer pointing to GPIO port, to access hardware register Pn_OMR.
 216:C:/work_mari/XMC4800/common-tasks/RTC/Libraries/XMCLib/inc\xmc_gpio.h ****  * @param  pin	 Port pin number.
 217:C:/work_mari/XMC4800/common-tasks/RTC/Libraries/XMCLib/inc\xmc_gpio.h ****  * @param  level output level selection. Refer @ref XMC_GPIO_OUTPUT_LEVEL_t for valid values.
 218:C:/work_mari/XMC4800/common-tasks/RTC/Libraries/XMCLib/inc\xmc_gpio.h ****  *
 219:C:/work_mari/XMC4800/common-tasks/RTC/Libraries/XMCLib/inc\xmc_gpio.h ****  * @return None
 220:C:/work_mari/XMC4800/common-tasks/RTC/Libraries/XMCLib/inc\xmc_gpio.h ****  *
 221:C:/work_mari/XMC4800/common-tasks/RTC/Libraries/XMCLib/inc\xmc_gpio.h ****  * \par<b>Description:</b><br>
 222:C:/work_mari/XMC4800/common-tasks/RTC/Libraries/XMCLib/inc\xmc_gpio.h ****  * Set port pin output level to high or low.It configures hardware registers Pn_OMR.\a level is ini
 223:C:/work_mari/XMC4800/common-tasks/RTC/Libraries/XMCLib/inc\xmc_gpio.h ****  * configured during initialization in XMC_GPIO_Init(). Call this API to alter output level as need
 224:C:/work_mari/XMC4800/common-tasks/RTC/Libraries/XMCLib/inc\xmc_gpio.h ****  *
 225:C:/work_mari/XMC4800/common-tasks/RTC/Libraries/XMCLib/inc\xmc_gpio.h ****  * \par<b>Related APIs:</b><BR>
 226:C:/work_mari/XMC4800/common-tasks/RTC/Libraries/XMCLib/inc\xmc_gpio.h ****  *  XMC_GPIO_SetOutputHigh(), XMC_GPIO_SetOutputLow().
 227:C:/work_mari/XMC4800/common-tasks/RTC/Libraries/XMCLib/inc\xmc_gpio.h ****  *
 228:C:/work_mari/XMC4800/common-tasks/RTC/Libraries/XMCLib/inc\xmc_gpio.h ****  * \par<b>Note:</b><br>
 229:C:/work_mari/XMC4800/common-tasks/RTC/Libraries/XMCLib/inc\xmc_gpio.h ****  * Prior to this api, user has to configure port pin to output mode using XMC_GPIO_SetMode().
 230:C:/work_mari/XMC4800/common-tasks/RTC/Libraries/XMCLib/inc\xmc_gpio.h ****  *
 231:C:/work_mari/XMC4800/common-tasks/RTC/Libraries/XMCLib/inc\xmc_gpio.h ****  */
 232:C:/work_mari/XMC4800/common-tasks/RTC/Libraries/XMCLib/inc\xmc_gpio.h **** 
 233:C:/work_mari/XMC4800/common-tasks/RTC/Libraries/XMCLib/inc\xmc_gpio.h **** 
 234:C:/work_mari/XMC4800/common-tasks/RTC/Libraries/XMCLib/inc\xmc_gpio.h **** __STATIC_INLINE void XMC_GPIO_SetOutputLevel(XMC_GPIO_PORT_t *const port, const uint8_t pin, const 
 235:C:/work_mari/XMC4800/common-tasks/RTC/Libraries/XMCLib/inc\xmc_gpio.h **** {
 236:C:/work_mari/XMC4800/common-tasks/RTC/Libraries/XMCLib/inc\xmc_gpio.h ****   XMC_ASSERT("XMC_GPIO_SetOutputLevel: Invalid port", XMC_GPIO_CHECK_OUTPUT_PORT(port));
 237:C:/work_mari/XMC4800/common-tasks/RTC/Libraries/XMCLib/inc\xmc_gpio.h ****   XMC_ASSERT("XMC_GPIO_SetOutputLevel: Invalid output level", XMC_GPIO_CHECK_OUTPUT_LEVEL(level));
 238:C:/work_mari/XMC4800/common-tasks/RTC/Libraries/XMCLib/inc\xmc_gpio.h **** 
 239:C:/work_mari/XMC4800/common-tasks/RTC/Libraries/XMCLib/inc\xmc_gpio.h ****   port->OMR = (uint32_t)level << pin;
 240:C:/work_mari/XMC4800/common-tasks/RTC/Libraries/XMCLib/inc\xmc_gpio.h **** }
 241:C:/work_mari/XMC4800/common-tasks/RTC/Libraries/XMCLib/inc\xmc_gpio.h **** 
 242:C:/work_mari/XMC4800/common-tasks/RTC/Libraries/XMCLib/inc\xmc_gpio.h **** 
 243:C:/work_mari/XMC4800/common-tasks/RTC/Libraries/XMCLib/inc\xmc_gpio.h **** /**
 244:C:/work_mari/XMC4800/common-tasks/RTC/Libraries/XMCLib/inc\xmc_gpio.h ****  * @param  port constant pointer pointing to GPIO port, to access hardware register Pn_OMR.
 245:C:/work_mari/XMC4800/common-tasks/RTC/Libraries/XMCLib/inc\xmc_gpio.h ****  * @param  pin	Port pin number.
 246:C:/work_mari/XMC4800/common-tasks/RTC/Libraries/XMCLib/inc\xmc_gpio.h ****  *
 247:C:/work_mari/XMC4800/common-tasks/RTC/Libraries/XMCLib/inc\xmc_gpio.h ****  * @return None
 248:C:/work_mari/XMC4800/common-tasks/RTC/Libraries/XMCLib/inc\xmc_gpio.h ****  *
 249:C:/work_mari/XMC4800/common-tasks/RTC/Libraries/XMCLib/inc\xmc_gpio.h ****  * \par<b>Description:</b><br>
 250:C:/work_mari/XMC4800/common-tasks/RTC/Libraries/XMCLib/inc\xmc_gpio.h ****  *  Sets port pin output to high. It configures hardware registers Pn_OMR.
 251:C:/work_mari/XMC4800/common-tasks/RTC/Libraries/XMCLib/inc\xmc_gpio.h ****  *
 252:C:/work_mari/XMC4800/common-tasks/RTC/Libraries/XMCLib/inc\xmc_gpio.h ****  *  \par<b>Related APIs:</b><BR>
 253:C:/work_mari/XMC4800/common-tasks/RTC/Libraries/XMCLib/inc\xmc_gpio.h ****  *  XMC_GPIO_SetOutputLow()
 254:C:/work_mari/XMC4800/common-tasks/RTC/Libraries/XMCLib/inc\xmc_gpio.h ****  *
 255:C:/work_mari/XMC4800/common-tasks/RTC/Libraries/XMCLib/inc\xmc_gpio.h ****  * \par<b>Note:</b><br>
 256:C:/work_mari/XMC4800/common-tasks/RTC/Libraries/XMCLib/inc\xmc_gpio.h ****  * Prior to this api, user has to configure port pin to output mode using XMC_GPIO_SetMode().\n
 257:C:/work_mari/XMC4800/common-tasks/RTC/Libraries/XMCLib/inc\xmc_gpio.h ****  * Register Pn_OMR is virtual and does not contain any flip-flop. A read action delivers the value 
 258:C:/work_mari/XMC4800/common-tasks/RTC/Libraries/XMCLib/inc\xmc_gpio.h ****  *
 259:C:/work_mari/XMC4800/common-tasks/RTC/Libraries/XMCLib/inc\xmc_gpio.h ****  */
 260:C:/work_mari/XMC4800/common-tasks/RTC/Libraries/XMCLib/inc\xmc_gpio.h **** 
 261:C:/work_mari/XMC4800/common-tasks/RTC/Libraries/XMCLib/inc\xmc_gpio.h **** __STATIC_INLINE void XMC_GPIO_SetOutputHigh(XMC_GPIO_PORT_t *const port, const uint8_t pin)
 262:C:/work_mari/XMC4800/common-tasks/RTC/Libraries/XMCLib/inc\xmc_gpio.h **** {
  27              	 .loc 1 262 0
  28              	 .cfi_startproc
  29              	 
  30              	 
  31              	 
  32 0000 80B4     	 push {r7}
  33              	.LCFI0:
  34              	 .cfi_def_cfa_offset 4
  35              	 .cfi_offset 7,-4
  36 0002 83B0     	 sub sp,sp,#12
  37              	.LCFI1:
  38              	 .cfi_def_cfa_offset 16
  39 0004 00AF     	 add r7,sp,#0
  40              	.LCFI2:
  41              	 .cfi_def_cfa_register 7
  42 0006 7860     	 str r0,[r7,#4]
  43 0008 0B46     	 mov r3,r1
  44 000a FB70     	 strb r3,[r7,#3]
 263:C:/work_mari/XMC4800/common-tasks/RTC/Libraries/XMCLib/inc\xmc_gpio.h ****   XMC_ASSERT("XMC_GPIO_SetOutputHigh: Invalid port", XMC_GPIO_CHECK_OUTPUT_PORT(port));
 264:C:/work_mari/XMC4800/common-tasks/RTC/Libraries/XMCLib/inc\xmc_gpio.h **** 
 265:C:/work_mari/XMC4800/common-tasks/RTC/Libraries/XMCLib/inc\xmc_gpio.h ****   port->OMR = (uint32_t)0x1U << pin;
  45              	 .loc 1 265 0
  46 000c FB78     	 ldrb r3,[r7,#3]
  47 000e 0122     	 movs r2,#1
  48 0010 9A40     	 lsls r2,r2,r3
  49 0012 7B68     	 ldr r3,[r7,#4]
  50 0014 5A60     	 str r2,[r3,#4]
 266:C:/work_mari/XMC4800/common-tasks/RTC/Libraries/XMCLib/inc\xmc_gpio.h **** }
  51              	 .loc 1 266 0
  52 0016 0C37     	 adds r7,r7,#12
  53              	.LCFI3:
  54              	 .cfi_def_cfa_offset 4
  55 0018 BD46     	 mov sp,r7
  56              	.LCFI4:
  57              	 .cfi_def_cfa_register 13
  58              	 
  59 001a 5DF8047B 	 ldr r7,[sp],#4
  60              	.LCFI5:
  61              	 .cfi_restore 7
  62              	 .cfi_def_cfa_offset 0
  63 001e 7047     	 bx lr
  64              	 .cfi_endproc
  65              	.LFE176:
  67              	 .section .text.XMC_GPIO_SetOutputLow,"ax",%progbits
  68              	 .align 2
  69              	 .thumb
  70              	 .thumb_func
  72              	XMC_GPIO_SetOutputLow:
  73              	.LFB177:
 267:C:/work_mari/XMC4800/common-tasks/RTC/Libraries/XMCLib/inc\xmc_gpio.h **** 
 268:C:/work_mari/XMC4800/common-tasks/RTC/Libraries/XMCLib/inc\xmc_gpio.h **** /**
 269:C:/work_mari/XMC4800/common-tasks/RTC/Libraries/XMCLib/inc\xmc_gpio.h ****  *
 270:C:/work_mari/XMC4800/common-tasks/RTC/Libraries/XMCLib/inc\xmc_gpio.h ****  * @param  port	constant pointer pointing to GPIO port, to access hardware register Pn_OMR.
 271:C:/work_mari/XMC4800/common-tasks/RTC/Libraries/XMCLib/inc\xmc_gpio.h ****  * @param  pin	port pin number.
 272:C:/work_mari/XMC4800/common-tasks/RTC/Libraries/XMCLib/inc\xmc_gpio.h ****  *
 273:C:/work_mari/XMC4800/common-tasks/RTC/Libraries/XMCLib/inc\xmc_gpio.h ****  * @return  None
 274:C:/work_mari/XMC4800/common-tasks/RTC/Libraries/XMCLib/inc\xmc_gpio.h ****  *
 275:C:/work_mari/XMC4800/common-tasks/RTC/Libraries/XMCLib/inc\xmc_gpio.h ****  *\par<b>Description:</b><br>
 276:C:/work_mari/XMC4800/common-tasks/RTC/Libraries/XMCLib/inc\xmc_gpio.h ****  * Sets port pin output to low. It configures hardware registers Pn_OMR.\n
 277:C:/work_mari/XMC4800/common-tasks/RTC/Libraries/XMCLib/inc\xmc_gpio.h ****  *
 278:C:/work_mari/XMC4800/common-tasks/RTC/Libraries/XMCLib/inc\xmc_gpio.h ****  * \par<b>Related APIs:</b><BR>>
 279:C:/work_mari/XMC4800/common-tasks/RTC/Libraries/XMCLib/inc\xmc_gpio.h ****  * XMC_GPIO_SetOutputHigh()
 280:C:/work_mari/XMC4800/common-tasks/RTC/Libraries/XMCLib/inc\xmc_gpio.h ****  *
 281:C:/work_mari/XMC4800/common-tasks/RTC/Libraries/XMCLib/inc\xmc_gpio.h ****  *\par<b>Note:</b><br>
 282:C:/work_mari/XMC4800/common-tasks/RTC/Libraries/XMCLib/inc\xmc_gpio.h ****  * Prior to this api, user has to configure port pin to output mode using XMC_GPIO_SetMode().
 283:C:/work_mari/XMC4800/common-tasks/RTC/Libraries/XMCLib/inc\xmc_gpio.h ****  * Register Pn_OMR is virtual and does not contain any flip-flop. A read action delivers the value 
 284:C:/work_mari/XMC4800/common-tasks/RTC/Libraries/XMCLib/inc\xmc_gpio.h ****  *
 285:C:/work_mari/XMC4800/common-tasks/RTC/Libraries/XMCLib/inc\xmc_gpio.h ****  */
 286:C:/work_mari/XMC4800/common-tasks/RTC/Libraries/XMCLib/inc\xmc_gpio.h **** 
 287:C:/work_mari/XMC4800/common-tasks/RTC/Libraries/XMCLib/inc\xmc_gpio.h **** __STATIC_INLINE void XMC_GPIO_SetOutputLow(XMC_GPIO_PORT_t *const port, const uint8_t pin)
 288:C:/work_mari/XMC4800/common-tasks/RTC/Libraries/XMCLib/inc\xmc_gpio.h **** {
  74              	 .loc 1 288 0
  75              	 .cfi_startproc
  76              	 
  77              	 
  78              	 
  79 0000 80B4     	 push {r7}
  80              	.LCFI6:
  81              	 .cfi_def_cfa_offset 4
  82              	 .cfi_offset 7,-4
  83 0002 83B0     	 sub sp,sp,#12
  84              	.LCFI7:
  85              	 .cfi_def_cfa_offset 16
  86 0004 00AF     	 add r7,sp,#0
  87              	.LCFI8:
  88              	 .cfi_def_cfa_register 7
  89 0006 7860     	 str r0,[r7,#4]
  90 0008 0B46     	 mov r3,r1
  91 000a FB70     	 strb r3,[r7,#3]
 289:C:/work_mari/XMC4800/common-tasks/RTC/Libraries/XMCLib/inc\xmc_gpio.h ****   XMC_ASSERT("XMC_GPIO_SetOutputLow: Invalid port", XMC_GPIO_CHECK_OUTPUT_PORT(port));
 290:C:/work_mari/XMC4800/common-tasks/RTC/Libraries/XMCLib/inc\xmc_gpio.h **** 
 291:C:/work_mari/XMC4800/common-tasks/RTC/Libraries/XMCLib/inc\xmc_gpio.h ****   port->OMR = 0x10000U << pin;
  92              	 .loc 1 291 0
  93 000c FB78     	 ldrb r3,[r7,#3]
  94 000e 4FF48032 	 mov r2,#65536
  95 0012 9A40     	 lsls r2,r2,r3
  96 0014 7B68     	 ldr r3,[r7,#4]
  97 0016 5A60     	 str r2,[r3,#4]
 292:C:/work_mari/XMC4800/common-tasks/RTC/Libraries/XMCLib/inc\xmc_gpio.h **** }
  98              	 .loc 1 292 0
  99 0018 0C37     	 adds r7,r7,#12
 100              	.LCFI9:
 101              	 .cfi_def_cfa_offset 4
 102 001a BD46     	 mov sp,r7
 103              	.LCFI10:
 104              	 .cfi_def_cfa_register 13
 105              	 
 106 001c 5DF8047B 	 ldr r7,[sp],#4
 107              	.LCFI11:
 108              	 .cfi_restore 7
 109              	 .cfi_def_cfa_offset 0
 110 0020 7047     	 bx lr
 111              	 .cfi_endproc
 112              	.LFE177:
 114 0022 00BF     	 .section .text.RTC_Start,"ax",%progbits
 115              	 .align 2
 116              	 .thumb
 117              	 .thumb_func
 119              	RTC_Start:
 120              	.LFB186:
 121              	 .file 2 "C:/work_mari/XMC4800/common-tasks/RTC/Dave/Generated/RTC/rtc.h"
   1:C:/work_mari/XMC4800/common-tasks/RTC/Dave/Generated/RTC\rtc.h **** /**
   2:C:/work_mari/XMC4800/common-tasks/RTC/Dave/Generated/RTC\rtc.h ****  * @file rtc.h
   3:C:/work_mari/XMC4800/common-tasks/RTC/Dave/Generated/RTC\rtc.h ****  * @date 2021-01-08
   4:C:/work_mari/XMC4800/common-tasks/RTC/Dave/Generated/RTC\rtc.h ****  *
   5:C:/work_mari/XMC4800/common-tasks/RTC/Dave/Generated/RTC\rtc.h ****  * NOTE:
   6:C:/work_mari/XMC4800/common-tasks/RTC/Dave/Generated/RTC\rtc.h ****  * This file is generated by DAVE. Any manual modification done to this file will be lost when the 
   7:C:/work_mari/XMC4800/common-tasks/RTC/Dave/Generated/RTC\rtc.h ****  * regenerated.
   8:C:/work_mari/XMC4800/common-tasks/RTC/Dave/Generated/RTC\rtc.h ****  */
   9:C:/work_mari/XMC4800/common-tasks/RTC/Dave/Generated/RTC\rtc.h **** /**
  10:C:/work_mari/XMC4800/common-tasks/RTC/Dave/Generated/RTC\rtc.h ****  * @cond
  11:C:/work_mari/XMC4800/common-tasks/RTC/Dave/Generated/RTC\rtc.h ****  **************************************************************************************************
  12:C:/work_mari/XMC4800/common-tasks/RTC/Dave/Generated/RTC\rtc.h ****  * RTC v4.1.16 Facilitates to generate real time clock and alarm
  13:C:/work_mari/XMC4800/common-tasks/RTC/Dave/Generated/RTC\rtc.h ****  *
  14:C:/work_mari/XMC4800/common-tasks/RTC/Dave/Generated/RTC\rtc.h ****  * Copyright (c) 2015-2020, Infineon Technologies AG
  15:C:/work_mari/XMC4800/common-tasks/RTC/Dave/Generated/RTC\rtc.h ****  * All rights reserved.
  16:C:/work_mari/XMC4800/common-tasks/RTC/Dave/Generated/RTC\rtc.h ****  *
  17:C:/work_mari/XMC4800/common-tasks/RTC/Dave/Generated/RTC\rtc.h ****  * Redistribution and use in source and binary forms, with or without modification,are permitted pr
  18:C:/work_mari/XMC4800/common-tasks/RTC/Dave/Generated/RTC\rtc.h ****  * following conditions are met:
  19:C:/work_mari/XMC4800/common-tasks/RTC/Dave/Generated/RTC\rtc.h ****  *
  20:C:/work_mari/XMC4800/common-tasks/RTC/Dave/Generated/RTC\rtc.h ****  *   Redistributions of source code must retain the above copyright notice, this list of conditions
  21:C:/work_mari/XMC4800/common-tasks/RTC/Dave/Generated/RTC\rtc.h ****  *   disclaimer.
  22:C:/work_mari/XMC4800/common-tasks/RTC/Dave/Generated/RTC\rtc.h ****  *
  23:C:/work_mari/XMC4800/common-tasks/RTC/Dave/Generated/RTC\rtc.h ****  *   Redistributions in binary form must reproduce the above copyright notice, this list of conditi
  24:C:/work_mari/XMC4800/common-tasks/RTC/Dave/Generated/RTC\rtc.h ****  *   following disclaimer in the documentation and/or other materials provided with the distributio
  25:C:/work_mari/XMC4800/common-tasks/RTC/Dave/Generated/RTC\rtc.h ****  *
  26:C:/work_mari/XMC4800/common-tasks/RTC/Dave/Generated/RTC\rtc.h ****  *   Neither the name of the copyright holders nor the names of its contributors may be used to end
  27:C:/work_mari/XMC4800/common-tasks/RTC/Dave/Generated/RTC\rtc.h ****  *   products derived from this software without specific prior written permission.
  28:C:/work_mari/XMC4800/common-tasks/RTC/Dave/Generated/RTC\rtc.h ****  *
  29:C:/work_mari/XMC4800/common-tasks/RTC/Dave/Generated/RTC\rtc.h ****  * THIS SOFTWARE IS PROVIDED BY THE COPYRIGHT HOLDERS AND CONTRIBUTORS "AS IS" AND ANY EXPRESS OR I
  30:C:/work_mari/XMC4800/common-tasks/RTC/Dave/Generated/RTC\rtc.h ****  * INCLUDING, BUT NOT LIMITED TO, THE IMPLIED WARRANTIES OF MERCHANTABILITY AND FITNESS FOR A PARTI
  31:C:/work_mari/XMC4800/common-tasks/RTC/Dave/Generated/RTC\rtc.h ****  * DISCLAIMED. IN NO EVENT SHALL THE COPYRIGHT HOLDER OR CONTRIBUTORS BE LIABLE  FOR ANY DIRECT, IN
  32:C:/work_mari/XMC4800/common-tasks/RTC/Dave/Generated/RTC\rtc.h ****  * SPECIAL, EXEMPLARY, OR CONSEQUENTIAL DAMAGES (INCLUDING, BUT NOT LIMITED TO, PROCUREMENT OF SUBS
  33:C:/work_mari/XMC4800/common-tasks/RTC/Dave/Generated/RTC\rtc.h ****  * SERVICES; LOSS OF USE, DATA, OR PROFITS; OR BUSINESS INTERRUPTION) HOWEVER CAUSED AND ON ANY THE
  34:C:/work_mari/XMC4800/common-tasks/RTC/Dave/Generated/RTC\rtc.h ****  * WHETHER IN CONTRACT, STRICT LIABILITY,OR TORT (INCLUDING NEGLIGENCE OR OTHERWISE) ARISING IN ANY
  35:C:/work_mari/XMC4800/common-tasks/RTC/Dave/Generated/RTC\rtc.h ****  * USE OF THIS SOFTWARE, EVEN IF ADVISED OF THE POSSIBILITY OF SUCH DAMAGE.
  36:C:/work_mari/XMC4800/common-tasks/RTC/Dave/Generated/RTC\rtc.h ****  *
  37:C:/work_mari/XMC4800/common-tasks/RTC/Dave/Generated/RTC\rtc.h ****  * To improve the quality of the software, users are encouraged to share modifications, enhancement
  38:C:/work_mari/XMC4800/common-tasks/RTC/Dave/Generated/RTC\rtc.h ****  * with Infineon Technologies AG (dave@infineon.com).
  39:C:/work_mari/XMC4800/common-tasks/RTC/Dave/Generated/RTC\rtc.h ****  **************************************************************************************************
  40:C:/work_mari/XMC4800/common-tasks/RTC/Dave/Generated/RTC\rtc.h ****  *
  41:C:/work_mari/XMC4800/common-tasks/RTC/Dave/Generated/RTC\rtc.h ****  * Change History
  42:C:/work_mari/XMC4800/common-tasks/RTC/Dave/Generated/RTC\rtc.h ****  * --------------
  43:C:/work_mari/XMC4800/common-tasks/RTC/Dave/Generated/RTC\rtc.h ****  *
  44:C:/work_mari/XMC4800/common-tasks/RTC/Dave/Generated/RTC\rtc.h ****  * 2015-02-16:
  45:C:/work_mari/XMC4800/common-tasks/RTC/Dave/Generated/RTC\rtc.h ****  *     - Initial version<br>
  46:C:/work_mari/XMC4800/common-tasks/RTC/Dave/Generated/RTC\rtc.h ****  *
  47:C:/work_mari/XMC4800/common-tasks/RTC/Dave/Generated/RTC\rtc.h ****  * 2015-05-18:
  48:C:/work_mari/XMC4800/common-tasks/RTC/Dave/Generated/RTC\rtc.h ****  *     - LLD version check added
  49:C:/work_mari/XMC4800/common-tasks/RTC/Dave/Generated/RTC\rtc.h ****  * 2016-07-15:
  50:C:/work_mari/XMC4800/common-tasks/RTC/Dave/Generated/RTC\rtc.h ****  *     - Added APIs to set and get time and alarm in standard time format.<br>
  51:C:/work_mari/XMC4800/common-tasks/RTC/Dave/Generated/RTC\rtc.h ****  * 2021-01-08:
  52:C:/work_mari/XMC4800/common-tasks/RTC/Dave/Generated/RTC\rtc.h ****  *     - Modified check for minimum XMCLib version
  53:C:/work_mari/XMC4800/common-tasks/RTC/Dave/Generated/RTC\rtc.h ****  *
  54:C:/work_mari/XMC4800/common-tasks/RTC/Dave/Generated/RTC\rtc.h ****  * @endcond
  55:C:/work_mari/XMC4800/common-tasks/RTC/Dave/Generated/RTC\rtc.h ****  *
  56:C:/work_mari/XMC4800/common-tasks/RTC/Dave/Generated/RTC\rtc.h ****  */
  57:C:/work_mari/XMC4800/common-tasks/RTC/Dave/Generated/RTC\rtc.h **** 
  58:C:/work_mari/XMC4800/common-tasks/RTC/Dave/Generated/RTC\rtc.h **** #ifndef RTC_H
  59:C:/work_mari/XMC4800/common-tasks/RTC/Dave/Generated/RTC\rtc.h **** #define RTC_H
  60:C:/work_mari/XMC4800/common-tasks/RTC/Dave/Generated/RTC\rtc.h **** 
  61:C:/work_mari/XMC4800/common-tasks/RTC/Dave/Generated/RTC\rtc.h **** 
  62:C:/work_mari/XMC4800/common-tasks/RTC/Dave/Generated/RTC\rtc.h **** /**************************************************************************************************
  63:C:/work_mari/XMC4800/common-tasks/RTC/Dave/Generated/RTC\rtc.h ****  * HEADER FILES
  64:C:/work_mari/XMC4800/common-tasks/RTC/Dave/Generated/RTC\rtc.h ****  **************************************************************************************************
  65:C:/work_mari/XMC4800/common-tasks/RTC/Dave/Generated/RTC\rtc.h **** #include "xmc_scu.h"
  66:C:/work_mari/XMC4800/common-tasks/RTC/Dave/Generated/RTC\rtc.h **** #include "xmc_rtc.h"
  67:C:/work_mari/XMC4800/common-tasks/RTC/Dave/Generated/RTC\rtc.h **** #include "rtc_conf.h"
  68:C:/work_mari/XMC4800/common-tasks/RTC/Dave/Generated/RTC\rtc.h **** #include "DAVE_Common.h"
  69:C:/work_mari/XMC4800/common-tasks/RTC/Dave/Generated/RTC\rtc.h **** 
  70:C:/work_mari/XMC4800/common-tasks/RTC/Dave/Generated/RTC\rtc.h **** /**************************************************************************************************
  71:C:/work_mari/XMC4800/common-tasks/RTC/Dave/Generated/RTC\rtc.h ****  * MACROS
  72:C:/work_mari/XMC4800/common-tasks/RTC/Dave/Generated/RTC\rtc.h ****  **************************************************************************************************
  73:C:/work_mari/XMC4800/common-tasks/RTC/Dave/Generated/RTC\rtc.h **** #define RTC_XMC_LIB_MAJOR_VERSION 2
  74:C:/work_mari/XMC4800/common-tasks/RTC/Dave/Generated/RTC\rtc.h **** #define RTC_XMC_LIB_MINOR_VERSION 0
  75:C:/work_mari/XMC4800/common-tasks/RTC/Dave/Generated/RTC\rtc.h **** #define RTC_XMC_LIB_PATCH_VERSION 0
  76:C:/work_mari/XMC4800/common-tasks/RTC/Dave/Generated/RTC\rtc.h **** 
  77:C:/work_mari/XMC4800/common-tasks/RTC/Dave/Generated/RTC\rtc.h **** #if !((XMC_LIB_MAJOR_VERSION > RTC_XMC_LIB_MAJOR_VERSION) ||\
  78:C:/work_mari/XMC4800/common-tasks/RTC/Dave/Generated/RTC\rtc.h ****       ((XMC_LIB_MAJOR_VERSION == RTC_XMC_LIB_MAJOR_VERSION) && (XMC_LIB_MINOR_VERSION > RTC_XMC_LIB
  79:C:/work_mari/XMC4800/common-tasks/RTC/Dave/Generated/RTC\rtc.h ****       ((XMC_LIB_MAJOR_VERSION == RTC_XMC_LIB_MAJOR_VERSION) && (XMC_LIB_MINOR_VERSION == RTC_XMC_LI
  80:C:/work_mari/XMC4800/common-tasks/RTC/Dave/Generated/RTC\rtc.h **** #error "RTC APP requires XMC Peripheral Library v2.0.0 or higher"
  81:C:/work_mari/XMC4800/common-tasks/RTC/Dave/Generated/RTC\rtc.h **** #endif
  82:C:/work_mari/XMC4800/common-tasks/RTC/Dave/Generated/RTC\rtc.h **** 
  83:C:/work_mari/XMC4800/common-tasks/RTC/Dave/Generated/RTC\rtc.h **** /**************************************************************************************************
  84:C:/work_mari/XMC4800/common-tasks/RTC/Dave/Generated/RTC\rtc.h ****  * ENUMS
  85:C:/work_mari/XMC4800/common-tasks/RTC/Dave/Generated/RTC\rtc.h ****  **************************************************************************************************
  86:C:/work_mari/XMC4800/common-tasks/RTC/Dave/Generated/RTC\rtc.h **** /**
  87:C:/work_mari/XMC4800/common-tasks/RTC/Dave/Generated/RTC\rtc.h ****  * @ingroup RTC_enumerations
  88:C:/work_mari/XMC4800/common-tasks/RTC/Dave/Generated/RTC\rtc.h ****  * @{
  89:C:/work_mari/XMC4800/common-tasks/RTC/Dave/Generated/RTC\rtc.h ****  */
  90:C:/work_mari/XMC4800/common-tasks/RTC/Dave/Generated/RTC\rtc.h **** 
  91:C:/work_mari/XMC4800/common-tasks/RTC/Dave/Generated/RTC\rtc.h **** typedef enum RTC_STATUS
  92:C:/work_mari/XMC4800/common-tasks/RTC/Dave/Generated/RTC\rtc.h **** {
  93:C:/work_mari/XMC4800/common-tasks/RTC/Dave/Generated/RTC\rtc.h ****   RTC_STATUS_SUCCESS = 0U,    /**< APP initialization status success */
  94:C:/work_mari/XMC4800/common-tasks/RTC/Dave/Generated/RTC\rtc.h ****   RTC_STATUS_FAILURE = 1U     /**< APP initialization status failure */
  95:C:/work_mari/XMC4800/common-tasks/RTC/Dave/Generated/RTC\rtc.h **** } RTC_STATUS_t;
  96:C:/work_mari/XMC4800/common-tasks/RTC/Dave/Generated/RTC\rtc.h **** 
  97:C:/work_mari/XMC4800/common-tasks/RTC/Dave/Generated/RTC\rtc.h **** /**
  98:C:/work_mari/XMC4800/common-tasks/RTC/Dave/Generated/RTC\rtc.h ****  * This enumeration defines RTC Module Enable and Disable values.
  99:C:/work_mari/XMC4800/common-tasks/RTC/Dave/Generated/RTC\rtc.h ****  */
 100:C:/work_mari/XMC4800/common-tasks/RTC/Dave/Generated/RTC\rtc.h **** 
 101:C:/work_mari/XMC4800/common-tasks/RTC/Dave/Generated/RTC\rtc.h **** typedef enum RTC_START
 102:C:/work_mari/XMC4800/common-tasks/RTC/Dave/Generated/RTC\rtc.h **** {
 103:C:/work_mari/XMC4800/common-tasks/RTC/Dave/Generated/RTC\rtc.h ****   RTC_START_DISABLE = 0x0U, /**< Disable RTC start */
 104:C:/work_mari/XMC4800/common-tasks/RTC/Dave/Generated/RTC\rtc.h ****   RTC_START_ENABLE = 0x1U   /**< Enable RTC start */
 105:C:/work_mari/XMC4800/common-tasks/RTC/Dave/Generated/RTC\rtc.h **** } RTC_START_t;
 106:C:/work_mari/XMC4800/common-tasks/RTC/Dave/Generated/RTC\rtc.h **** 
 107:C:/work_mari/XMC4800/common-tasks/RTC/Dave/Generated/RTC\rtc.h **** 
 108:C:/work_mari/XMC4800/common-tasks/RTC/Dave/Generated/RTC\rtc.h **** /**
 109:C:/work_mari/XMC4800/common-tasks/RTC/Dave/Generated/RTC\rtc.h ****  * This enumeration defines RTC Module Interrupt Related Events Enable and
 110:C:/work_mari/XMC4800/common-tasks/RTC/Dave/Generated/RTC\rtc.h ****  * Disable values.
 111:C:/work_mari/XMC4800/common-tasks/RTC/Dave/Generated/RTC\rtc.h ****  */
 112:C:/work_mari/XMC4800/common-tasks/RTC/Dave/Generated/RTC\rtc.h **** 
 113:C:/work_mari/XMC4800/common-tasks/RTC/Dave/Generated/RTC\rtc.h **** typedef enum RTC_INT
 114:C:/work_mari/XMC4800/common-tasks/RTC/Dave/Generated/RTC\rtc.h **** {
 115:C:/work_mari/XMC4800/common-tasks/RTC/Dave/Generated/RTC\rtc.h ****   RTC_INT_PERIODIC_SEC_DISABLE = 0x0U,          /**< Timer Periodic Seconds Interrupt Disable */
 116:C:/work_mari/XMC4800/common-tasks/RTC/Dave/Generated/RTC\rtc.h ****   RTC_INT_PERIODIC_SEC_ENABLE = 0x1U,           /**< Timer Periodic Seconds Interrupt Enable */
 117:C:/work_mari/XMC4800/common-tasks/RTC/Dave/Generated/RTC\rtc.h ****   RTC_INT_PERIODIC_MIN_DISABLE = 0x0U,          /**< Timer Periodic Minutes Interrupt Disable */
 118:C:/work_mari/XMC4800/common-tasks/RTC/Dave/Generated/RTC\rtc.h ****   RTC_INT_PERIODIC_MIN_ENABLE = 0x1U,           /**< Timer Periodic Minutes Interrupt Enable */
 119:C:/work_mari/XMC4800/common-tasks/RTC/Dave/Generated/RTC\rtc.h ****   RTC_INT_PERIODIC_HOUR_DISABLE = 0x0U,         /**< Timer Periodic Hours Interrupt Disable */
 120:C:/work_mari/XMC4800/common-tasks/RTC/Dave/Generated/RTC\rtc.h ****   RTC_INT_PERIODIC_HOUR_ENABLE = 0x1U,          /**< Timer Periodic Hours Interrupt Enable */
 121:C:/work_mari/XMC4800/common-tasks/RTC/Dave/Generated/RTC\rtc.h ****   RTC_INT_PERIODIC_DAY_DISABLE = 0x0U,          /**< Timer Periodic Days Interrupt Disable */
 122:C:/work_mari/XMC4800/common-tasks/RTC/Dave/Generated/RTC\rtc.h ****   RTC_INT_PERIODIC_DAY_ENABLE = 0x1U,           /**< Timer Periodic Days Interrupt Enable */
 123:C:/work_mari/XMC4800/common-tasks/RTC/Dave/Generated/RTC\rtc.h ****   RTC_INT_PERIODIC_MONTH_DISABLE = 0x0U,        /**< Timer Periodic Month Interrupt Disable */
 124:C:/work_mari/XMC4800/common-tasks/RTC/Dave/Generated/RTC\rtc.h ****   RTC_INT_PERIODIC_MONTH_ENABLE = 0x1U,         /**< Timer Periodic Month Interrupt Enable */
 125:C:/work_mari/XMC4800/common-tasks/RTC/Dave/Generated/RTC\rtc.h ****   RTC_INT_PERIODIC_YEAR_DISABLE = 0x0U,         /**< Timer Periodic Years Interrupt Disable */
 126:C:/work_mari/XMC4800/common-tasks/RTC/Dave/Generated/RTC\rtc.h ****   RTC_INT_PERIODIC_YEAR_ENABLE = 0x1U,          /**< Timer Periodic Years Interrupt Enable */
 127:C:/work_mari/XMC4800/common-tasks/RTC/Dave/Generated/RTC\rtc.h ****   RTC_INT_ALARM_DISABLE = 0x0U,                 /**< Alarm Interrupt Disable */
 128:C:/work_mari/XMC4800/common-tasks/RTC/Dave/Generated/RTC\rtc.h ****   RTC_INT_ALARM_ENABLE = 0x1U                   /**< Alarm Interrupt Enable */
 129:C:/work_mari/XMC4800/common-tasks/RTC/Dave/Generated/RTC\rtc.h **** } RTC_INT_t;
 130:C:/work_mari/XMC4800/common-tasks/RTC/Dave/Generated/RTC\rtc.h **** 
 131:C:/work_mari/XMC4800/common-tasks/RTC/Dave/Generated/RTC\rtc.h **** /**************************************************************************************************
 132:C:/work_mari/XMC4800/common-tasks/RTC/Dave/Generated/RTC\rtc.h **** * DATA STRUCTURES
 133:C:/work_mari/XMC4800/common-tasks/RTC/Dave/Generated/RTC\rtc.h **** ***************************************************************************************************
 134:C:/work_mari/XMC4800/common-tasks/RTC/Dave/Generated/RTC\rtc.h **** /**
 135:C:/work_mari/XMC4800/common-tasks/RTC/Dave/Generated/RTC\rtc.h ****   * @ingroup RTC_datastructures
 136:C:/work_mari/XMC4800/common-tasks/RTC/Dave/Generated/RTC\rtc.h ****   * @{
 137:C:/work_mari/XMC4800/common-tasks/RTC/Dave/Generated/RTC\rtc.h ****   */
 138:C:/work_mari/XMC4800/common-tasks/RTC/Dave/Generated/RTC\rtc.h **** 
 139:C:/work_mari/XMC4800/common-tasks/RTC/Dave/Generated/RTC\rtc.h **** /**
 140:C:/work_mari/XMC4800/common-tasks/RTC/Dave/Generated/RTC\rtc.h ****  * RTC APP Handle structure. Stores configured parameters in APP UI.
 141:C:/work_mari/XMC4800/common-tasks/RTC/Dave/Generated/RTC\rtc.h ****  */
 142:C:/work_mari/XMC4800/common-tasks/RTC/Dave/Generated/RTC\rtc.h **** 
 143:C:/work_mari/XMC4800/common-tasks/RTC/Dave/Generated/RTC\rtc.h **** typedef struct RTC_CONFIG
 144:C:/work_mari/XMC4800/common-tasks/RTC/Dave/Generated/RTC\rtc.h **** {
 145:C:/work_mari/XMC4800/common-tasks/RTC/Dave/Generated/RTC\rtc.h ****  RTC_START_t start;                           /**< rtc start */
 146:C:/work_mari/XMC4800/common-tasks/RTC/Dave/Generated/RTC\rtc.h **** 
 147:C:/work_mari/XMC4800/common-tasks/RTC/Dave/Generated/RTC\rtc.h ****  RTC_INT_t periodic_sec_intr;                 /**< periodic seconds interrupt */
 148:C:/work_mari/XMC4800/common-tasks/RTC/Dave/Generated/RTC\rtc.h ****  RTC_INT_t periodic_min_intr;                 /**< periodic minutes interrupt */
 149:C:/work_mari/XMC4800/common-tasks/RTC/Dave/Generated/RTC\rtc.h ****  RTC_INT_t periodic_hour_intr;                /**< periodic hours interrupt */
 150:C:/work_mari/XMC4800/common-tasks/RTC/Dave/Generated/RTC\rtc.h ****  RTC_INT_t periodic_day_intr;                 /**< periodic days interrupt */
 151:C:/work_mari/XMC4800/common-tasks/RTC/Dave/Generated/RTC\rtc.h ****  RTC_INT_t periodic_month_intr;               /**< periodic months interrupt */
 152:C:/work_mari/XMC4800/common-tasks/RTC/Dave/Generated/RTC\rtc.h ****  RTC_INT_t periodic_year_intr;                /**< periodic years interrupt */
 153:C:/work_mari/XMC4800/common-tasks/RTC/Dave/Generated/RTC\rtc.h **** 
 154:C:/work_mari/XMC4800/common-tasks/RTC/Dave/Generated/RTC\rtc.h ****  RTC_INT_t alarm_intr;                        /**< alarm interrupt */
 155:C:/work_mari/XMC4800/common-tasks/RTC/Dave/Generated/RTC\rtc.h **** 
 156:C:/work_mari/XMC4800/common-tasks/RTC/Dave/Generated/RTC\rtc.h **** #if ((UC_FAMILY == XMC4) && (RTC_INTERRUPT_ENABLED == 1))
 157:C:/work_mari/XMC4800/common-tasks/RTC/Dave/Generated/RTC\rtc.h ****  GLOBAL_SCU_XMC4_EVENT_HANDLER_t pi_listener;            /**< periodic interrupt listener */
 158:C:/work_mari/XMC4800/common-tasks/RTC/Dave/Generated/RTC\rtc.h ****  GLOBAL_SCU_XMC4_EVENT_HANDLER_t ai_listener;            /**< alarm interrupt listener */
 159:C:/work_mari/XMC4800/common-tasks/RTC/Dave/Generated/RTC\rtc.h **** #endif
 160:C:/work_mari/XMC4800/common-tasks/RTC/Dave/Generated/RTC\rtc.h **** 
 161:C:/work_mari/XMC4800/common-tasks/RTC/Dave/Generated/RTC\rtc.h **** #if ((UC_FAMILY == XMC1) && (RTC_INTERRUPT_ENABLED == 1))
 162:C:/work_mari/XMC4800/common-tasks/RTC/Dave/Generated/RTC\rtc.h ****  GLOBAL_SCU_XMC1_EVENT_HANDLER_t pi_listener;            /**< periodic interrupt listener */
 163:C:/work_mari/XMC4800/common-tasks/RTC/Dave/Generated/RTC\rtc.h ****  GLOBAL_SCU_XMC1_EVENT_HANDLER_t ai_listener;            /**< alarm interrupt listener */
 164:C:/work_mari/XMC4800/common-tasks/RTC/Dave/Generated/RTC\rtc.h **** #endif
 165:C:/work_mari/XMC4800/common-tasks/RTC/Dave/Generated/RTC\rtc.h **** } RTC_CONFIG_t;
 166:C:/work_mari/XMC4800/common-tasks/RTC/Dave/Generated/RTC\rtc.h **** 
 167:C:/work_mari/XMC4800/common-tasks/RTC/Dave/Generated/RTC\rtc.h **** /**
 168:C:/work_mari/XMC4800/common-tasks/RTC/Dave/Generated/RTC\rtc.h ****  * Runtime RTC handler.
 169:C:/work_mari/XMC4800/common-tasks/RTC/Dave/Generated/RTC\rtc.h ****  */
 170:C:/work_mari/XMC4800/common-tasks/RTC/Dave/Generated/RTC\rtc.h **** typedef struct RealTimeClock
 171:C:/work_mari/XMC4800/common-tasks/RTC/Dave/Generated/RTC\rtc.h **** {
 172:C:/work_mari/XMC4800/common-tasks/RTC/Dave/Generated/RTC\rtc.h ****   const XMC_RTC_CONFIG_t *const time_alarm_config; /** Pointer to RTC LLD configuration data */
 173:C:/work_mari/XMC4800/common-tasks/RTC/Dave/Generated/RTC\rtc.h ****   const RTC_CONFIG_t *const config;                /** Pointer to configuration data */
 174:C:/work_mari/XMC4800/common-tasks/RTC/Dave/Generated/RTC\rtc.h ****   bool initialized;                                /** status for initialized or not */
 175:C:/work_mari/XMC4800/common-tasks/RTC/Dave/Generated/RTC\rtc.h **** } RTC_t;
 176:C:/work_mari/XMC4800/common-tasks/RTC/Dave/Generated/RTC\rtc.h **** /**
 177:C:/work_mari/XMC4800/common-tasks/RTC/Dave/Generated/RTC\rtc.h ****  *@}
 178:C:/work_mari/XMC4800/common-tasks/RTC/Dave/Generated/RTC\rtc.h ****  */
 179:C:/work_mari/XMC4800/common-tasks/RTC/Dave/Generated/RTC\rtc.h **** 
 180:C:/work_mari/XMC4800/common-tasks/RTC/Dave/Generated/RTC\rtc.h **** #ifdef __cplusplus
 181:C:/work_mari/XMC4800/common-tasks/RTC/Dave/Generated/RTC\rtc.h **** extern "C" {
 182:C:/work_mari/XMC4800/common-tasks/RTC/Dave/Generated/RTC\rtc.h **** #endif
 183:C:/work_mari/XMC4800/common-tasks/RTC/Dave/Generated/RTC\rtc.h **** /**************************************************************************************************
 184:C:/work_mari/XMC4800/common-tasks/RTC/Dave/Generated/RTC\rtc.h ****  * API PROTOTYPES
 185:C:/work_mari/XMC4800/common-tasks/RTC/Dave/Generated/RTC\rtc.h **** ***************************************************************************************************
 186:C:/work_mari/XMC4800/common-tasks/RTC/Dave/Generated/RTC\rtc.h **** 
 187:C:/work_mari/XMC4800/common-tasks/RTC/Dave/Generated/RTC\rtc.h **** /**
 188:C:/work_mari/XMC4800/common-tasks/RTC/Dave/Generated/RTC\rtc.h ****  * @ingroup RTC_apidoc
 189:C:/work_mari/XMC4800/common-tasks/RTC/Dave/Generated/RTC\rtc.h ****  * @{
 190:C:/work_mari/XMC4800/common-tasks/RTC/Dave/Generated/RTC\rtc.h ****  */
 191:C:/work_mari/XMC4800/common-tasks/RTC/Dave/Generated/RTC\rtc.h **** 
 192:C:/work_mari/XMC4800/common-tasks/RTC/Dave/Generated/RTC\rtc.h **** /**
 193:C:/work_mari/XMC4800/common-tasks/RTC/Dave/Generated/RTC\rtc.h ****  * @brief Get RTC APP version.
 194:C:/work_mari/XMC4800/common-tasks/RTC/Dave/Generated/RTC\rtc.h ****  * @return @ref DAVE_APP_VERSION_t APP version information (major, minor and patch number)
 195:C:/work_mari/XMC4800/common-tasks/RTC/Dave/Generated/RTC\rtc.h ****  *
 196:C:/work_mari/XMC4800/common-tasks/RTC/Dave/Generated/RTC\rtc.h ****  * \par<b>Description: </b><br>
 197:C:/work_mari/XMC4800/common-tasks/RTC/Dave/Generated/RTC\rtc.h ****  * The function can be used to check application software compatibility with a
 198:C:/work_mari/XMC4800/common-tasks/RTC/Dave/Generated/RTC\rtc.h ****  * specific version of the APP.
 199:C:/work_mari/XMC4800/common-tasks/RTC/Dave/Generated/RTC\rtc.h ****  *
 200:C:/work_mari/XMC4800/common-tasks/RTC/Dave/Generated/RTC\rtc.h ****  * @code
 201:C:/work_mari/XMC4800/common-tasks/RTC/Dave/Generated/RTC\rtc.h ****  *  #include "DAVE.h"
 202:C:/work_mari/XMC4800/common-tasks/RTC/Dave/Generated/RTC\rtc.h ****  *
 203:C:/work_mari/XMC4800/common-tasks/RTC/Dave/Generated/RTC\rtc.h ****  *  int main(void)
 204:C:/work_mari/XMC4800/common-tasks/RTC/Dave/Generated/RTC\rtc.h ****  *  {
 205:C:/work_mari/XMC4800/common-tasks/RTC/Dave/Generated/RTC\rtc.h ****  *    DAVE_APP_VERSION_t version;
 206:C:/work_mari/XMC4800/common-tasks/RTC/Dave/Generated/RTC\rtc.h ****  *    DAVE_Init();
 207:C:/work_mari/XMC4800/common-tasks/RTC/Dave/Generated/RTC\rtc.h ****  *    version = RTC_GetAppVersion();
 208:C:/work_mari/XMC4800/common-tasks/RTC/Dave/Generated/RTC\rtc.h ****  *    if(version.major != 4U)
 209:C:/work_mari/XMC4800/common-tasks/RTC/Dave/Generated/RTC\rtc.h ****  *    {
 210:C:/work_mari/XMC4800/common-tasks/RTC/Dave/Generated/RTC\rtc.h ****  *    }
 211:C:/work_mari/XMC4800/common-tasks/RTC/Dave/Generated/RTC\rtc.h ****  *    return 0;
 212:C:/work_mari/XMC4800/common-tasks/RTC/Dave/Generated/RTC\rtc.h ****  *  }
 213:C:/work_mari/XMC4800/common-tasks/RTC/Dave/Generated/RTC\rtc.h ****  * @endcode<BR> </p>
 214:C:/work_mari/XMC4800/common-tasks/RTC/Dave/Generated/RTC\rtc.h ****  */
 215:C:/work_mari/XMC4800/common-tasks/RTC/Dave/Generated/RTC\rtc.h **** DAVE_APP_VERSION_t RTC_GetAppVersion(void);
 216:C:/work_mari/XMC4800/common-tasks/RTC/Dave/Generated/RTC\rtc.h **** 
 217:C:/work_mari/XMC4800/common-tasks/RTC/Dave/Generated/RTC\rtc.h **** 
 218:C:/work_mari/XMC4800/common-tasks/RTC/Dave/Generated/RTC\rtc.h ****  /**
 219:C:/work_mari/XMC4800/common-tasks/RTC/Dave/Generated/RTC\rtc.h ****  * @brief Initializes RTC module.
 220:C:/work_mari/XMC4800/common-tasks/RTC/Dave/Generated/RTC\rtc.h ****  * @param handle Constant pointer to RTC structure of type @ref RTC_t
 221:C:/work_mari/XMC4800/common-tasks/RTC/Dave/Generated/RTC\rtc.h ****  * @return @ref RTC_STATUS_t
 222:C:/work_mari/XMC4800/common-tasks/RTC/Dave/Generated/RTC\rtc.h ****  *
 223:C:/work_mari/XMC4800/common-tasks/RTC/Dave/Generated/RTC\rtc.h ****  * \par<b>Description:</b><br>
 224:C:/work_mari/XMC4800/common-tasks/RTC/Dave/Generated/RTC\rtc.h ****  * Configures the RTC module registers as per settings updated in
 225:C:/work_mari/XMC4800/common-tasks/RTC/Dave/Generated/RTC\rtc.h ****  * UI and enables the RTC module.
 226:C:/work_mari/XMC4800/common-tasks/RTC/Dave/Generated/RTC\rtc.h ****  *
 227:C:/work_mari/XMC4800/common-tasks/RTC/Dave/Generated/RTC\rtc.h ****  * <P ALIGN="LEFT"><B>Example:</B>
 228:C:/work_mari/XMC4800/common-tasks/RTC/Dave/Generated/RTC\rtc.h ****  * Pre-requisite: Instantiate RTC APP and generate code before copying below code snippet.
 229:C:/work_mari/XMC4800/common-tasks/RTC/Dave/Generated/RTC\rtc.h ****  * @code
 230:C:/work_mari/XMC4800/common-tasks/RTC/Dave/Generated/RTC\rtc.h ****  *  #include "DAVE.h"
 231:C:/work_mari/XMC4800/common-tasks/RTC/Dave/Generated/RTC\rtc.h ****  * 
 232:C:/work_mari/XMC4800/common-tasks/RTC/Dave/Generated/RTC\rtc.h ****  *  int main(void)
 233:C:/work_mari/XMC4800/common-tasks/RTC/Dave/Generated/RTC\rtc.h ****  *  {
 234:C:/work_mari/XMC4800/common-tasks/RTC/Dave/Generated/RTC\rtc.h ****  *    DAVE_Init(); // RTC_Init(&RTC_0) will be called within DAVE_Init()
 235:C:/work_mari/XMC4800/common-tasks/RTC/Dave/Generated/RTC\rtc.h ****  *    // ... infinite loop ...
 236:C:/work_mari/XMC4800/common-tasks/RTC/Dave/Generated/RTC\rtc.h ****  *    while(1)
 237:C:/work_mari/XMC4800/common-tasks/RTC/Dave/Generated/RTC\rtc.h ****  *    {}
 238:C:/work_mari/XMC4800/common-tasks/RTC/Dave/Generated/RTC\rtc.h ****  *  }
 239:C:/work_mari/XMC4800/common-tasks/RTC/Dave/Generated/RTC\rtc.h ****  * @endcode<BR> </p> 
 240:C:/work_mari/XMC4800/common-tasks/RTC/Dave/Generated/RTC\rtc.h ****  */
 241:C:/work_mari/XMC4800/common-tasks/RTC/Dave/Generated/RTC\rtc.h **** RTC_STATUS_t RTC_Init(RTC_t *const handle);
 242:C:/work_mari/XMC4800/common-tasks/RTC/Dave/Generated/RTC\rtc.h **** 
 243:C:/work_mari/XMC4800/common-tasks/RTC/Dave/Generated/RTC\rtc.h **** /**
 244:C:/work_mari/XMC4800/common-tasks/RTC/Dave/Generated/RTC\rtc.h ****  * @brief Returns the time in seconds since the epoch time(01/01/1970).
 245:C:/work_mari/XMC4800/common-tasks/RTC/Dave/Generated/RTC\rtc.h ****  * @param time_value Pointer to structure of type @ref time_t
 246:C:/work_mari/XMC4800/common-tasks/RTC/Dave/Generated/RTC\rtc.h ****  * @return @ref RTC_STATUS_t
 247:C:/work_mari/XMC4800/common-tasks/RTC/Dave/Generated/RTC\rtc.h ****  *
 248:C:/work_mari/XMC4800/common-tasks/RTC/Dave/Generated/RTC\rtc.h ****  * <P ALIGN="LEFT"><B>Example:</B>
 249:C:/work_mari/XMC4800/common-tasks/RTC/Dave/Generated/RTC\rtc.h ****  * Pre-requisite: Instantiate RTC APP and generate code before copying below code snippet.
 250:C:/work_mari/XMC4800/common-tasks/RTC/Dave/Generated/RTC\rtc.h ****  * @code 
 251:C:/work_mari/XMC4800/common-tasks/RTC/Dave/Generated/RTC\rtc.h ****  * #include "DAVE.h"
 252:C:/work_mari/XMC4800/common-tasks/RTC/Dave/Generated/RTC\rtc.h ****  * 
 253:C:/work_mari/XMC4800/common-tasks/RTC/Dave/Generated/RTC\rtc.h ****  * int main(void)
 254:C:/work_mari/XMC4800/common-tasks/RTC/Dave/Generated/RTC\rtc.h ****  * {
 255:C:/work_mari/XMC4800/common-tasks/RTC/Dave/Generated/RTC\rtc.h ****  *   RTC_STATUS_t status = RTC_STATUS_FAILURE;
 256:C:/work_mari/XMC4800/common-tasks/RTC/Dave/Generated/RTC\rtc.h ****  *   time_t Time_Sec;
 257:C:/work_mari/XMC4800/common-tasks/RTC/Dave/Generated/RTC\rtc.h ****  *   DAVE_Init();  // RTC_Init(&RTC_0) will be called within DAVE_Init()
 258:C:/work_mari/XMC4800/common-tasks/RTC/Dave/Generated/RTC\rtc.h ****  *   status = RTC_Time(&Time_Sec);
 259:C:/work_mari/XMC4800/common-tasks/RTC/Dave/Generated/RTC\rtc.h ****  *   if(status != RTC_STATUS_SUCCESS)
 260:C:/work_mari/XMC4800/common-tasks/RTC/Dave/Generated/RTC\rtc.h ****  *   {
 261:C:/work_mari/XMC4800/common-tasks/RTC/Dave/Generated/RTC\rtc.h ****  *	   //error
 262:C:/work_mari/XMC4800/common-tasks/RTC/Dave/Generated/RTC\rtc.h ****  *   }
 263:C:/work_mari/XMC4800/common-tasks/RTC/Dave/Generated/RTC\rtc.h ****  *   // ... infinite loop ...
 264:C:/work_mari/XMC4800/common-tasks/RTC/Dave/Generated/RTC\rtc.h ****  *   while(1)
 265:C:/work_mari/XMC4800/common-tasks/RTC/Dave/Generated/RTC\rtc.h ****  *   {}
 266:C:/work_mari/XMC4800/common-tasks/RTC/Dave/Generated/RTC\rtc.h ****  * }
 267:C:/work_mari/XMC4800/common-tasks/RTC/Dave/Generated/RTC\rtc.h ****  * @endcode<BR> </p> 
 268:C:/work_mari/XMC4800/common-tasks/RTC/Dave/Generated/RTC\rtc.h ****  */
 269:C:/work_mari/XMC4800/common-tasks/RTC/Dave/Generated/RTC\rtc.h **** RTC_STATUS_t RTC_Time(time_t* time_value) ;
 270:C:/work_mari/XMC4800/common-tasks/RTC/Dave/Generated/RTC\rtc.h **** 
 271:C:/work_mari/XMC4800/common-tasks/RTC/Dave/Generated/RTC\rtc.h **** /**
 272:C:/work_mari/XMC4800/common-tasks/RTC/Dave/Generated/RTC\rtc.h ****  * @brief Starts the RTC running
 273:C:/work_mari/XMC4800/common-tasks/RTC/Dave/Generated/RTC\rtc.h ****  * @return None
 274:C:/work_mari/XMC4800/common-tasks/RTC/Dave/Generated/RTC\rtc.h ****  *
 275:C:/work_mari/XMC4800/common-tasks/RTC/Dave/Generated/RTC\rtc.h ****  *\par<b>Description: </b><br>
 276:C:/work_mari/XMC4800/common-tasks/RTC/Dave/Generated/RTC\rtc.h ****  * Before verifying this API it is required to deselect "Start after initialization" checbox in UI.
 277:C:/work_mari/XMC4800/common-tasks/RTC/Dave/Generated/RTC\rtc.h ****  * Thereby this API shall be used to start the RTC module.
 278:C:/work_mari/XMC4800/common-tasks/RTC/Dave/Generated/RTC\rtc.h ****  * <P ALIGN="LEFT"><B>Example:</B>
 279:C:/work_mari/XMC4800/common-tasks/RTC/Dave/Generated/RTC\rtc.h ****  * Pre-requisite:
 280:C:/work_mari/XMC4800/common-tasks/RTC/Dave/Generated/RTC\rtc.h ****  * 1. Instantiate RTC APP <br>
 281:C:/work_mari/XMC4800/common-tasks/RTC/Dave/Generated/RTC\rtc.h ****  * 2. Unselect "Start after initialization checkbox in UI" <br>
 282:C:/work_mari/XMC4800/common-tasks/RTC/Dave/Generated/RTC\rtc.h ****  * 3. Generate code before copying below code snippet. <br>
 283:C:/work_mari/XMC4800/common-tasks/RTC/Dave/Generated/RTC\rtc.h ****  * @code
 284:C:/work_mari/XMC4800/common-tasks/RTC/Dave/Generated/RTC\rtc.h ****  * #include "DAVE.h"
 285:C:/work_mari/XMC4800/common-tasks/RTC/Dave/Generated/RTC\rtc.h ****  * 
 286:C:/work_mari/XMC4800/common-tasks/RTC/Dave/Generated/RTC\rtc.h ****  * int main(void)
 287:C:/work_mari/XMC4800/common-tasks/RTC/Dave/Generated/RTC\rtc.h ****  * {
 288:C:/work_mari/XMC4800/common-tasks/RTC/Dave/Generated/RTC\rtc.h ****  *   DAVE_Init();// RTC_Init(&RTC_0) will be called within DAVE_Init()
 289:C:/work_mari/XMC4800/common-tasks/RTC/Dave/Generated/RTC\rtc.h ****  *   RTC_Stop();
 290:C:/work_mari/XMC4800/common-tasks/RTC/Dave/Generated/RTC\rtc.h ****  *   if (XMC_RTC_IsRunning() == false)
 291:C:/work_mari/XMC4800/common-tasks/RTC/Dave/Generated/RTC\rtc.h ****  *   {
 292:C:/work_mari/XMC4800/common-tasks/RTC/Dave/Generated/RTC\rtc.h ****  *     RTC_Start();
 293:C:/work_mari/XMC4800/common-tasks/RTC/Dave/Generated/RTC\rtc.h ****  *   }
 294:C:/work_mari/XMC4800/common-tasks/RTC/Dave/Generated/RTC\rtc.h ****  *   // ... infinite loop ...
 295:C:/work_mari/XMC4800/common-tasks/RTC/Dave/Generated/RTC\rtc.h ****  *   while(1)
 296:C:/work_mari/XMC4800/common-tasks/RTC/Dave/Generated/RTC\rtc.h ****  *   {}
 297:C:/work_mari/XMC4800/common-tasks/RTC/Dave/Generated/RTC\rtc.h ****  * }
 298:C:/work_mari/XMC4800/common-tasks/RTC/Dave/Generated/RTC\rtc.h ****  * @endcode<BR> </p>
 299:C:/work_mari/XMC4800/common-tasks/RTC/Dave/Generated/RTC\rtc.h ****  */
 300:C:/work_mari/XMC4800/common-tasks/RTC/Dave/Generated/RTC\rtc.h **** __STATIC_INLINE void RTC_Start(void)
 301:C:/work_mari/XMC4800/common-tasks/RTC/Dave/Generated/RTC\rtc.h **** {
 122              	 .loc 2 301 0
 123              	 .cfi_startproc
 124              	 
 125              	 
 126 0000 80B5     	 push {r7,lr}
 127              	.LCFI12:
 128              	 .cfi_def_cfa_offset 8
 129              	 .cfi_offset 7,-8
 130              	 .cfi_offset 14,-4
 131 0002 00AF     	 add r7,sp,#0
 132              	.LCFI13:
 133              	 .cfi_def_cfa_register 7
 302:C:/work_mari/XMC4800/common-tasks/RTC/Dave/Generated/RTC\rtc.h **** 	XMC_RTC_Start();
 134              	 .loc 2 302 0
 135 0004 FFF7FEFF 	 bl XMC_RTC_Start
 303:C:/work_mari/XMC4800/common-tasks/RTC/Dave/Generated/RTC\rtc.h **** }
 136              	 .loc 2 303 0
 137 0008 80BD     	 pop {r7,pc}
 138              	 .cfi_endproc
 139              	.LFE186:
 141 000a 00BF     	 .section .text.RTC_Stop,"ax",%progbits
 142              	 .align 2
 143              	 .thumb
 144              	 .thumb_func
 146              	RTC_Stop:
 147              	.LFB187:
 304:C:/work_mari/XMC4800/common-tasks/RTC/Dave/Generated/RTC\rtc.h **** 
 305:C:/work_mari/XMC4800/common-tasks/RTC/Dave/Generated/RTC\rtc.h **** /**
 306:C:/work_mari/XMC4800/common-tasks/RTC/Dave/Generated/RTC\rtc.h ****  * @brief Stops the RTC running
 307:C:/work_mari/XMC4800/common-tasks/RTC/Dave/Generated/RTC\rtc.h ****  * @return None
 308:C:/work_mari/XMC4800/common-tasks/RTC/Dave/Generated/RTC\rtc.h ****  *
 309:C:/work_mari/XMC4800/common-tasks/RTC/Dave/Generated/RTC\rtc.h ****  * <P ALIGN="LEFT"><B>Example:</B>
 310:C:/work_mari/XMC4800/common-tasks/RTC/Dave/Generated/RTC\rtc.h ****  * Pre-requisite: Instantiate RTC APP <br>
 311:C:/work_mari/XMC4800/common-tasks/RTC/Dave/Generated/RTC\rtc.h ****  * Enable periodic seconds event in "Interrupt Settings" tab. <br>
 312:C:/work_mari/XMC4800/common-tasks/RTC/Dave/Generated/RTC\rtc.h ****  * Generate code before copying below code snippet.
 313:C:/work_mari/XMC4800/common-tasks/RTC/Dave/Generated/RTC\rtc.h ****  *
 314:C:/work_mari/XMC4800/common-tasks/RTC/Dave/Generated/RTC\rtc.h ****  * @code
 315:C:/work_mari/XMC4800/common-tasks/RTC/Dave/Generated/RTC\rtc.h ****  * #include "DAVE.h"
 316:C:/work_mari/XMC4800/common-tasks/RTC/Dave/Generated/RTC\rtc.h ****  *
 317:C:/work_mari/XMC4800/common-tasks/RTC/Dave/Generated/RTC\rtc.h ****  * void Time_Handler(void)
 318:C:/work_mari/XMC4800/common-tasks/RTC/Dave/Generated/RTC\rtc.h ****  * {
 319:C:/work_mari/XMC4800/common-tasks/RTC/Dave/Generated/RTC\rtc.h ****  *    static uint32_t seconds = 0;
 320:C:/work_mari/XMC4800/common-tasks/RTC/Dave/Generated/RTC\rtc.h ****  *    seconds++;
 321:C:/work_mari/XMC4800/common-tasks/RTC/Dave/Generated/RTC\rtc.h ****  *
 322:C:/work_mari/XMC4800/common-tasks/RTC/Dave/Generated/RTC\rtc.h ****  *    if(seconds == 30)
 323:C:/work_mari/XMC4800/common-tasks/RTC/Dave/Generated/RTC\rtc.h ****  *    {
 324:C:/work_mari/XMC4800/common-tasks/RTC/Dave/Generated/RTC\rtc.h ****  *      RTC_Stop();
 325:C:/work_mari/XMC4800/common-tasks/RTC/Dave/Generated/RTC\rtc.h ****  *    }
 326:C:/work_mari/XMC4800/common-tasks/RTC/Dave/Generated/RTC\rtc.h ****  * }
 327:C:/work_mari/XMC4800/common-tasks/RTC/Dave/Generated/RTC\rtc.h ****  * int main(void)
 328:C:/work_mari/XMC4800/common-tasks/RTC/Dave/Generated/RTC\rtc.h ****  * {
 329:C:/work_mari/XMC4800/common-tasks/RTC/Dave/Generated/RTC\rtc.h ****  *   DAVE_Init(); // RTC_Init(&RTC_0) will be called within DAVE_Init()
 330:C:/work_mari/XMC4800/common-tasks/RTC/Dave/Generated/RTC\rtc.h ****  *   // ... infinite loop ...
 331:C:/work_mari/XMC4800/common-tasks/RTC/Dave/Generated/RTC\rtc.h ****  *   while(1)
 332:C:/work_mari/XMC4800/common-tasks/RTC/Dave/Generated/RTC\rtc.h ****  *   {}
 333:C:/work_mari/XMC4800/common-tasks/RTC/Dave/Generated/RTC\rtc.h ****  * }
 334:C:/work_mari/XMC4800/common-tasks/RTC/Dave/Generated/RTC\rtc.h ****  * @endcode<BR> </p>
 335:C:/work_mari/XMC4800/common-tasks/RTC/Dave/Generated/RTC\rtc.h ****  */
 336:C:/work_mari/XMC4800/common-tasks/RTC/Dave/Generated/RTC\rtc.h **** __STATIC_INLINE void RTC_Stop(void)
 337:C:/work_mari/XMC4800/common-tasks/RTC/Dave/Generated/RTC\rtc.h **** {
 148              	 .loc 2 337 0
 149              	 .cfi_startproc
 150              	 
 151              	 
 152 0000 80B5     	 push {r7,lr}
 153              	.LCFI14:
 154              	 .cfi_def_cfa_offset 8
 155              	 .cfi_offset 7,-8
 156              	 .cfi_offset 14,-4
 157 0002 00AF     	 add r7,sp,#0
 158              	.LCFI15:
 159              	 .cfi_def_cfa_register 7
 338:C:/work_mari/XMC4800/common-tasks/RTC/Dave/Generated/RTC\rtc.h **** 	XMC_RTC_Stop();
 160              	 .loc 2 338 0
 161 0004 FFF7FEFF 	 bl XMC_RTC_Stop
 339:C:/work_mari/XMC4800/common-tasks/RTC/Dave/Generated/RTC\rtc.h **** }
 162              	 .loc 2 339 0
 163 0008 80BD     	 pop {r7,pc}
 164              	 .cfi_endproc
 165              	.LFE187:
 167 000a 00BF     	 .section .text.DIGITAL_IO_SetOutputHigh,"ax",%progbits
 168              	 .align 2
 169              	 .thumb
 170              	 .thumb_func
 172              	DIGITAL_IO_SetOutputHigh:
 173              	.LFB188:
 174              	 .file 3 "C:/work_mari/XMC4800/common-tasks/RTC/Dave/Generated/DIGITAL_IO/digital_io.h"
   1:C:/work_mari/XMC4800/common-tasks/RTC/Dave/Generated/DIGITAL_IO\digital_io.h **** /*
   2:C:/work_mari/XMC4800/common-tasks/RTC/Dave/Generated/DIGITAL_IO\digital_io.h ****  *
   3:C:/work_mari/XMC4800/common-tasks/RTC/Dave/Generated/DIGITAL_IO\digital_io.h ****  * @file digital_io.h
   4:C:/work_mari/XMC4800/common-tasks/RTC/Dave/Generated/DIGITAL_IO\digital_io.h ****  * @date 2021-01-08
   5:C:/work_mari/XMC4800/common-tasks/RTC/Dave/Generated/DIGITAL_IO\digital_io.h ****  *
   6:C:/work_mari/XMC4800/common-tasks/RTC/Dave/Generated/DIGITAL_IO\digital_io.h ****  * NOTE:
   7:C:/work_mari/XMC4800/common-tasks/RTC/Dave/Generated/DIGITAL_IO\digital_io.h ****  * This file is generated by DAVE. Any manual modification done to this file will be lost when the 
   8:C:/work_mari/XMC4800/common-tasks/RTC/Dave/Generated/DIGITAL_IO\digital_io.h ****  *
   9:C:/work_mari/XMC4800/common-tasks/RTC/Dave/Generated/DIGITAL_IO\digital_io.h ****  * @cond
  10:C:/work_mari/XMC4800/common-tasks/RTC/Dave/Generated/DIGITAL_IO\digital_io.h ****  **************************************************************************************************
  11:C:/work_mari/XMC4800/common-tasks/RTC/Dave/Generated/DIGITAL_IO\digital_io.h ****  * DIGITAL_IO v4.0.18 - The DIGITAL_IO APP is used to configure a port pin as digital Input/Output.
  12:C:/work_mari/XMC4800/common-tasks/RTC/Dave/Generated/DIGITAL_IO\digital_io.h ****  *
  13:C:/work_mari/XMC4800/common-tasks/RTC/Dave/Generated/DIGITAL_IO\digital_io.h ****  * Copyright (c) 2015-2020, Infineon Technologies AG
  14:C:/work_mari/XMC4800/common-tasks/RTC/Dave/Generated/DIGITAL_IO\digital_io.h ****  * All rights reserved.
  15:C:/work_mari/XMC4800/common-tasks/RTC/Dave/Generated/DIGITAL_IO\digital_io.h ****  *
  16:C:/work_mari/XMC4800/common-tasks/RTC/Dave/Generated/DIGITAL_IO\digital_io.h ****  * Redistribution and use in source and binary forms, with or without modification,are permitted pr
  17:C:/work_mari/XMC4800/common-tasks/RTC/Dave/Generated/DIGITAL_IO\digital_io.h ****  * following conditions are met:
  18:C:/work_mari/XMC4800/common-tasks/RTC/Dave/Generated/DIGITAL_IO\digital_io.h ****  *
  19:C:/work_mari/XMC4800/common-tasks/RTC/Dave/Generated/DIGITAL_IO\digital_io.h ****  *   Redistributions of source code must retain the above copyright notice, this list of conditions
  20:C:/work_mari/XMC4800/common-tasks/RTC/Dave/Generated/DIGITAL_IO\digital_io.h ****  *   disclaimer.
  21:C:/work_mari/XMC4800/common-tasks/RTC/Dave/Generated/DIGITAL_IO\digital_io.h ****  *
  22:C:/work_mari/XMC4800/common-tasks/RTC/Dave/Generated/DIGITAL_IO\digital_io.h ****  *   Redistributions in binary form must reproduce the above copyright notice, this list of conditi
  23:C:/work_mari/XMC4800/common-tasks/RTC/Dave/Generated/DIGITAL_IO\digital_io.h ****  *   following disclaimer in the documentation and/or other materials provided with the distributio
  24:C:/work_mari/XMC4800/common-tasks/RTC/Dave/Generated/DIGITAL_IO\digital_io.h ****  *
  25:C:/work_mari/XMC4800/common-tasks/RTC/Dave/Generated/DIGITAL_IO\digital_io.h ****  *   Neither the name of the copyright holders nor the names of its contributors may be used to end
  26:C:/work_mari/XMC4800/common-tasks/RTC/Dave/Generated/DIGITAL_IO\digital_io.h ****  *   products derived from this software without specific prior written permission.
  27:C:/work_mari/XMC4800/common-tasks/RTC/Dave/Generated/DIGITAL_IO\digital_io.h ****  *
  28:C:/work_mari/XMC4800/common-tasks/RTC/Dave/Generated/DIGITAL_IO\digital_io.h ****  * THIS SOFTWARE IS PROVIDED BY THE COPYRIGHT HOLDERS AND CONTRIBUTORS "AS IS" AND ANY EXPRESS OR I
  29:C:/work_mari/XMC4800/common-tasks/RTC/Dave/Generated/DIGITAL_IO\digital_io.h ****  * INCLUDING, BUT NOT LIMITED TO, THE IMPLIED WARRANTIES OF MERCHANTABILITY AND FITNESS FOR A PARTI
  30:C:/work_mari/XMC4800/common-tasks/RTC/Dave/Generated/DIGITAL_IO\digital_io.h ****  * DISCLAIMED. IN NO EVENT SHALL THE COPYRIGHT HOLDER OR CONTRIBUTORS BE LIABLE  FOR ANY DIRECT, IN
  31:C:/work_mari/XMC4800/common-tasks/RTC/Dave/Generated/DIGITAL_IO\digital_io.h ****  * SPECIAL, EXEMPLARY, OR CONSEQUENTIAL DAMAGES (INCLUDING, BUT NOT LIMITED TO, PROCUREMENT OF SUBS
  32:C:/work_mari/XMC4800/common-tasks/RTC/Dave/Generated/DIGITAL_IO\digital_io.h ****  * SERVICES; LOSS OF USE, DATA, OR PROFITS; OR BUSINESS INTERRUPTION) HOWEVER CAUSED AND ON ANY THE
  33:C:/work_mari/XMC4800/common-tasks/RTC/Dave/Generated/DIGITAL_IO\digital_io.h ****  * WHETHER IN CONTRACT, STRICT LIABILITY,OR TORT (INCLUDING NEGLIGENCE OR OTHERWISE) ARISING IN ANY
  34:C:/work_mari/XMC4800/common-tasks/RTC/Dave/Generated/DIGITAL_IO\digital_io.h ****  * USE OF THIS SOFTWARE, EVEN IF ADVISED OF THE POSSIBILITY OF SUCH DAMAGE.
  35:C:/work_mari/XMC4800/common-tasks/RTC/Dave/Generated/DIGITAL_IO\digital_io.h ****  *
  36:C:/work_mari/XMC4800/common-tasks/RTC/Dave/Generated/DIGITAL_IO\digital_io.h ****  * To improve the quality of the software, users are encouraged to share modifications, enhancement
  37:C:/work_mari/XMC4800/common-tasks/RTC/Dave/Generated/DIGITAL_IO\digital_io.h ****  * with Infineon Technologies AG (dave@infineon.com).
  38:C:/work_mari/XMC4800/common-tasks/RTC/Dave/Generated/DIGITAL_IO\digital_io.h ****  **************************************************************************************************
  39:C:/work_mari/XMC4800/common-tasks/RTC/Dave/Generated/DIGITAL_IO\digital_io.h ****  *
  40:C:/work_mari/XMC4800/common-tasks/RTC/Dave/Generated/DIGITAL_IO\digital_io.h ****  * Change History
  41:C:/work_mari/XMC4800/common-tasks/RTC/Dave/Generated/DIGITAL_IO\digital_io.h ****  * --------------
  42:C:/work_mari/XMC4800/common-tasks/RTC/Dave/Generated/DIGITAL_IO\digital_io.h ****  *
  43:C:/work_mari/XMC4800/common-tasks/RTC/Dave/Generated/DIGITAL_IO\digital_io.h ****  * 2015-02-16
  44:C:/work_mari/XMC4800/common-tasks/RTC/Dave/Generated/DIGITAL_IO\digital_io.h ****  *     - Initial version
  45:C:/work_mari/XMC4800/common-tasks/RTC/Dave/Generated/DIGITAL_IO\digital_io.h ****  *
  46:C:/work_mari/XMC4800/common-tasks/RTC/Dave/Generated/DIGITAL_IO\digital_io.h ****  * 2015-04-22
  47:C:/work_mari/XMC4800/common-tasks/RTC/Dave/Generated/DIGITAL_IO\digital_io.h ****  *     - XMC_ASSERT is added in static inline functions.<br>
  48:C:/work_mari/XMC4800/common-tasks/RTC/Dave/Generated/DIGITAL_IO\digital_io.h ****  *
  49:C:/work_mari/XMC4800/common-tasks/RTC/Dave/Generated/DIGITAL_IO\digital_io.h ****  * 2015-06-20
  50:C:/work_mari/XMC4800/common-tasks/RTC/Dave/Generated/DIGITAL_IO\digital_io.h ****  *     - Version check added for XMCLib dependency.<br>
  51:C:/work_mari/XMC4800/common-tasks/RTC/Dave/Generated/DIGITAL_IO\digital_io.h ****  *
  52:C:/work_mari/XMC4800/common-tasks/RTC/Dave/Generated/DIGITAL_IO\digital_io.h ****  * 2015-12-22
  53:C:/work_mari/XMC4800/common-tasks/RTC/Dave/Generated/DIGITAL_IO\digital_io.h ****  *     - Added hardware controlled IO feature.
  54:C:/work_mari/XMC4800/common-tasks/RTC/Dave/Generated/DIGITAL_IO\digital_io.h ****  * 2016-07-08:
  55:C:/work_mari/XMC4800/common-tasks/RTC/Dave/Generated/DIGITAL_IO\digital_io.h ****  *     - Fixed incorrect case for an included header.<br>
  56:C:/work_mari/XMC4800/common-tasks/RTC/Dave/Generated/DIGITAL_IO\digital_io.h ****  * 2021-01-08:
  57:C:/work_mari/XMC4800/common-tasks/RTC/Dave/Generated/DIGITAL_IO\digital_io.h ****  *     - Modified check for minimum XMCLib version
  58:C:/work_mari/XMC4800/common-tasks/RTC/Dave/Generated/DIGITAL_IO\digital_io.h ****  *
  59:C:/work_mari/XMC4800/common-tasks/RTC/Dave/Generated/DIGITAL_IO\digital_io.h ****  * @endcond
  60:C:/work_mari/XMC4800/common-tasks/RTC/Dave/Generated/DIGITAL_IO\digital_io.h ****  *
  61:C:/work_mari/XMC4800/common-tasks/RTC/Dave/Generated/DIGITAL_IO\digital_io.h ****  */
  62:C:/work_mari/XMC4800/common-tasks/RTC/Dave/Generated/DIGITAL_IO\digital_io.h **** 
  63:C:/work_mari/XMC4800/common-tasks/RTC/Dave/Generated/DIGITAL_IO\digital_io.h **** /**************************************************************************************************
  64:C:/work_mari/XMC4800/common-tasks/RTC/Dave/Generated/DIGITAL_IO\digital_io.h ****  * HEADER FILES
  65:C:/work_mari/XMC4800/common-tasks/RTC/Dave/Generated/DIGITAL_IO\digital_io.h ****  **************************************************************************************************
  66:C:/work_mari/XMC4800/common-tasks/RTC/Dave/Generated/DIGITAL_IO\digital_io.h **** 
  67:C:/work_mari/XMC4800/common-tasks/RTC/Dave/Generated/DIGITAL_IO\digital_io.h **** #ifndef DIGITAL_IO_H
  68:C:/work_mari/XMC4800/common-tasks/RTC/Dave/Generated/DIGITAL_IO\digital_io.h **** #define DIGITAL_IO_H
  69:C:/work_mari/XMC4800/common-tasks/RTC/Dave/Generated/DIGITAL_IO\digital_io.h **** 
  70:C:/work_mari/XMC4800/common-tasks/RTC/Dave/Generated/DIGITAL_IO\digital_io.h **** #include "xmc_gpio.h"
  71:C:/work_mari/XMC4800/common-tasks/RTC/Dave/Generated/DIGITAL_IO\digital_io.h **** #include "DAVE_Common.h"
  72:C:/work_mari/XMC4800/common-tasks/RTC/Dave/Generated/DIGITAL_IO\digital_io.h **** #include "digital_io_conf.h"
  73:C:/work_mari/XMC4800/common-tasks/RTC/Dave/Generated/DIGITAL_IO\digital_io.h **** 
  74:C:/work_mari/XMC4800/common-tasks/RTC/Dave/Generated/DIGITAL_IO\digital_io.h **** /**************************************************************************************************
  75:C:/work_mari/XMC4800/common-tasks/RTC/Dave/Generated/DIGITAL_IO\digital_io.h ****  * MACROS
  76:C:/work_mari/XMC4800/common-tasks/RTC/Dave/Generated/DIGITAL_IO\digital_io.h ****  **************************************************************************************************
  77:C:/work_mari/XMC4800/common-tasks/RTC/Dave/Generated/DIGITAL_IO\digital_io.h **** #define DIGITAL_IO_XMC_LIB_MAJOR_VERSION 2
  78:C:/work_mari/XMC4800/common-tasks/RTC/Dave/Generated/DIGITAL_IO\digital_io.h **** #define DIGITAL_IO_XMC_LIB_MINOR_VERSION 0
  79:C:/work_mari/XMC4800/common-tasks/RTC/Dave/Generated/DIGITAL_IO\digital_io.h **** #define DIGITAL_IO_XMC_LIB_PATCH_VERSION 0
  80:C:/work_mari/XMC4800/common-tasks/RTC/Dave/Generated/DIGITAL_IO\digital_io.h **** 
  81:C:/work_mari/XMC4800/common-tasks/RTC/Dave/Generated/DIGITAL_IO\digital_io.h **** #if !((XMC_LIB_MAJOR_VERSION > DIGITAL_IO_XMC_LIB_MAJOR_VERSION) ||\
  82:C:/work_mari/XMC4800/common-tasks/RTC/Dave/Generated/DIGITAL_IO\digital_io.h ****       ((XMC_LIB_MAJOR_VERSION == DIGITAL_IO_XMC_LIB_MAJOR_VERSION) && (XMC_LIB_MINOR_VERSION > DIGI
  83:C:/work_mari/XMC4800/common-tasks/RTC/Dave/Generated/DIGITAL_IO\digital_io.h ****       ((XMC_LIB_MAJOR_VERSION == DIGITAL_IO_XMC_LIB_MAJOR_VERSION) && (XMC_LIB_MINOR_VERSION == DIG
  84:C:/work_mari/XMC4800/common-tasks/RTC/Dave/Generated/DIGITAL_IO\digital_io.h **** #error "DIGITAL_IO requires XMC Peripheral Library v2.0.0 or higher"
  85:C:/work_mari/XMC4800/common-tasks/RTC/Dave/Generated/DIGITAL_IO\digital_io.h **** #endif
  86:C:/work_mari/XMC4800/common-tasks/RTC/Dave/Generated/DIGITAL_IO\digital_io.h **** 
  87:C:/work_mari/XMC4800/common-tasks/RTC/Dave/Generated/DIGITAL_IO\digital_io.h ****  /*************************************************************************************************
  88:C:/work_mari/XMC4800/common-tasks/RTC/Dave/Generated/DIGITAL_IO\digital_io.h ****  * ENUMS
  89:C:/work_mari/XMC4800/common-tasks/RTC/Dave/Generated/DIGITAL_IO\digital_io.h ****  **************************************************************************************************
  90:C:/work_mari/XMC4800/common-tasks/RTC/Dave/Generated/DIGITAL_IO\digital_io.h **** 
  91:C:/work_mari/XMC4800/common-tasks/RTC/Dave/Generated/DIGITAL_IO\digital_io.h **** /**
  92:C:/work_mari/XMC4800/common-tasks/RTC/Dave/Generated/DIGITAL_IO\digital_io.h **** * @ingroup DIGITAL_IO_enumerations
  93:C:/work_mari/XMC4800/common-tasks/RTC/Dave/Generated/DIGITAL_IO\digital_io.h **** * @{
  94:C:/work_mari/XMC4800/common-tasks/RTC/Dave/Generated/DIGITAL_IO\digital_io.h **** */
  95:C:/work_mari/XMC4800/common-tasks/RTC/Dave/Generated/DIGITAL_IO\digital_io.h **** 
  96:C:/work_mari/XMC4800/common-tasks/RTC/Dave/Generated/DIGITAL_IO\digital_io.h **** /**
  97:C:/work_mari/XMC4800/common-tasks/RTC/Dave/Generated/DIGITAL_IO\digital_io.h **** * @brief Initialization status of DIGITAL_IO APP.
  98:C:/work_mari/XMC4800/common-tasks/RTC/Dave/Generated/DIGITAL_IO\digital_io.h **** */
  99:C:/work_mari/XMC4800/common-tasks/RTC/Dave/Generated/DIGITAL_IO\digital_io.h **** typedef enum DIGITAL_IO_STATUS
 100:C:/work_mari/XMC4800/common-tasks/RTC/Dave/Generated/DIGITAL_IO\digital_io.h **** {
 101:C:/work_mari/XMC4800/common-tasks/RTC/Dave/Generated/DIGITAL_IO\digital_io.h ****   DIGITAL_IO_STATUS_OK = 0U,/**< 0=Status OK */
 102:C:/work_mari/XMC4800/common-tasks/RTC/Dave/Generated/DIGITAL_IO\digital_io.h ****   DIGITAL_IO_STATUS_FAILURE = 1U/**< 1=Status Failed */
 103:C:/work_mari/XMC4800/common-tasks/RTC/Dave/Generated/DIGITAL_IO\digital_io.h **** } DIGITAL_IO_STATUS_t;
 104:C:/work_mari/XMC4800/common-tasks/RTC/Dave/Generated/DIGITAL_IO\digital_io.h **** 
 105:C:/work_mari/XMC4800/common-tasks/RTC/Dave/Generated/DIGITAL_IO\digital_io.h **** /**
 106:C:/work_mari/XMC4800/common-tasks/RTC/Dave/Generated/DIGITAL_IO\digital_io.h **** * @}
 107:C:/work_mari/XMC4800/common-tasks/RTC/Dave/Generated/DIGITAL_IO\digital_io.h **** */
 108:C:/work_mari/XMC4800/common-tasks/RTC/Dave/Generated/DIGITAL_IO\digital_io.h **** 
 109:C:/work_mari/XMC4800/common-tasks/RTC/Dave/Generated/DIGITAL_IO\digital_io.h **** /**************************************************************************************************
 110:C:/work_mari/XMC4800/common-tasks/RTC/Dave/Generated/DIGITAL_IO\digital_io.h ****  * DATA STRUCTURES
 111:C:/work_mari/XMC4800/common-tasks/RTC/Dave/Generated/DIGITAL_IO\digital_io.h ****  **************************************************************************************************
 112:C:/work_mari/XMC4800/common-tasks/RTC/Dave/Generated/DIGITAL_IO\digital_io.h **** /**
 113:C:/work_mari/XMC4800/common-tasks/RTC/Dave/Generated/DIGITAL_IO\digital_io.h **** * @ingroup DIGITAL_IO_datastructures
 114:C:/work_mari/XMC4800/common-tasks/RTC/Dave/Generated/DIGITAL_IO\digital_io.h **** * @{
 115:C:/work_mari/XMC4800/common-tasks/RTC/Dave/Generated/DIGITAL_IO\digital_io.h **** */
 116:C:/work_mari/XMC4800/common-tasks/RTC/Dave/Generated/DIGITAL_IO\digital_io.h **** 
 117:C:/work_mari/XMC4800/common-tasks/RTC/Dave/Generated/DIGITAL_IO\digital_io.h **** /**
 118:C:/work_mari/XMC4800/common-tasks/RTC/Dave/Generated/DIGITAL_IO\digital_io.h **** * @brief Initialization data structure of DIGITAL_IO APP
 119:C:/work_mari/XMC4800/common-tasks/RTC/Dave/Generated/DIGITAL_IO\digital_io.h **** */
 120:C:/work_mari/XMC4800/common-tasks/RTC/Dave/Generated/DIGITAL_IO\digital_io.h **** typedef struct DIGITAL_IO
 121:C:/work_mari/XMC4800/common-tasks/RTC/Dave/Generated/DIGITAL_IO\digital_io.h **** {
 122:C:/work_mari/XMC4800/common-tasks/RTC/Dave/Generated/DIGITAL_IO\digital_io.h ****   XMC_GPIO_PORT_t *const gpio_port;             /**< port number */
 123:C:/work_mari/XMC4800/common-tasks/RTC/Dave/Generated/DIGITAL_IO\digital_io.h ****   const XMC_GPIO_CONFIG_t gpio_config;          /**< mode, initial output level and pad driver stre
 124:C:/work_mari/XMC4800/common-tasks/RTC/Dave/Generated/DIGITAL_IO\digital_io.h ****   const uint8_t gpio_pin;                       /**< pin number */
 125:C:/work_mari/XMC4800/common-tasks/RTC/Dave/Generated/DIGITAL_IO\digital_io.h ****   const XMC_GPIO_HWCTRL_t hwctrl;               /**< Hardware port control */
 126:C:/work_mari/XMC4800/common-tasks/RTC/Dave/Generated/DIGITAL_IO\digital_io.h **** } DIGITAL_IO_t;
 127:C:/work_mari/XMC4800/common-tasks/RTC/Dave/Generated/DIGITAL_IO\digital_io.h **** 
 128:C:/work_mari/XMC4800/common-tasks/RTC/Dave/Generated/DIGITAL_IO\digital_io.h **** 
 129:C:/work_mari/XMC4800/common-tasks/RTC/Dave/Generated/DIGITAL_IO\digital_io.h **** /**
 130:C:/work_mari/XMC4800/common-tasks/RTC/Dave/Generated/DIGITAL_IO\digital_io.h **** * @}
 131:C:/work_mari/XMC4800/common-tasks/RTC/Dave/Generated/DIGITAL_IO\digital_io.h **** */
 132:C:/work_mari/XMC4800/common-tasks/RTC/Dave/Generated/DIGITAL_IO\digital_io.h **** 
 133:C:/work_mari/XMC4800/common-tasks/RTC/Dave/Generated/DIGITAL_IO\digital_io.h **** 
 134:C:/work_mari/XMC4800/common-tasks/RTC/Dave/Generated/DIGITAL_IO\digital_io.h **** /**************************************************************************************************
 135:C:/work_mari/XMC4800/common-tasks/RTC/Dave/Generated/DIGITAL_IO\digital_io.h ****  * API Prototypes
 136:C:/work_mari/XMC4800/common-tasks/RTC/Dave/Generated/DIGITAL_IO\digital_io.h ****  **************************************************************************************************
 137:C:/work_mari/XMC4800/common-tasks/RTC/Dave/Generated/DIGITAL_IO\digital_io.h **** 
 138:C:/work_mari/XMC4800/common-tasks/RTC/Dave/Generated/DIGITAL_IO\digital_io.h **** 
 139:C:/work_mari/XMC4800/common-tasks/RTC/Dave/Generated/DIGITAL_IO\digital_io.h **** #ifdef __cplusplus
 140:C:/work_mari/XMC4800/common-tasks/RTC/Dave/Generated/DIGITAL_IO\digital_io.h **** extern "C" {
 141:C:/work_mari/XMC4800/common-tasks/RTC/Dave/Generated/DIGITAL_IO\digital_io.h **** #endif
 142:C:/work_mari/XMC4800/common-tasks/RTC/Dave/Generated/DIGITAL_IO\digital_io.h **** 
 143:C:/work_mari/XMC4800/common-tasks/RTC/Dave/Generated/DIGITAL_IO\digital_io.h **** /**
 144:C:/work_mari/XMC4800/common-tasks/RTC/Dave/Generated/DIGITAL_IO\digital_io.h **** * @ingroup DIGITAL_IO_apidoc
 145:C:/work_mari/XMC4800/common-tasks/RTC/Dave/Generated/DIGITAL_IO\digital_io.h **** * @{
 146:C:/work_mari/XMC4800/common-tasks/RTC/Dave/Generated/DIGITAL_IO\digital_io.h **** */
 147:C:/work_mari/XMC4800/common-tasks/RTC/Dave/Generated/DIGITAL_IO\digital_io.h **** 
 148:C:/work_mari/XMC4800/common-tasks/RTC/Dave/Generated/DIGITAL_IO\digital_io.h **** 
 149:C:/work_mari/XMC4800/common-tasks/RTC/Dave/Generated/DIGITAL_IO\digital_io.h **** 
 150:C:/work_mari/XMC4800/common-tasks/RTC/Dave/Generated/DIGITAL_IO\digital_io.h **** /**
 151:C:/work_mari/XMC4800/common-tasks/RTC/Dave/Generated/DIGITAL_IO\digital_io.h **** * @brief Get DIGITAL_IO APP version
 152:C:/work_mari/XMC4800/common-tasks/RTC/Dave/Generated/DIGITAL_IO\digital_io.h **** * @return DAVE_APP_VERSION_t APP version information (major, minor and patch number)
 153:C:/work_mari/XMC4800/common-tasks/RTC/Dave/Generated/DIGITAL_IO\digital_io.h **** *
 154:C:/work_mari/XMC4800/common-tasks/RTC/Dave/Generated/DIGITAL_IO\digital_io.h **** * \par<b>Description: </b><br>
 155:C:/work_mari/XMC4800/common-tasks/RTC/Dave/Generated/DIGITAL_IO\digital_io.h **** * The function can be used to check application software compatibility with a
 156:C:/work_mari/XMC4800/common-tasks/RTC/Dave/Generated/DIGITAL_IO\digital_io.h **** * specific version of the APP.
 157:C:/work_mari/XMC4800/common-tasks/RTC/Dave/Generated/DIGITAL_IO\digital_io.h **** *
 158:C:/work_mari/XMC4800/common-tasks/RTC/Dave/Generated/DIGITAL_IO\digital_io.h **** * Example Usage:
 159:C:/work_mari/XMC4800/common-tasks/RTC/Dave/Generated/DIGITAL_IO\digital_io.h **** *
 160:C:/work_mari/XMC4800/common-tasks/RTC/Dave/Generated/DIGITAL_IO\digital_io.h **** * @code
 161:C:/work_mari/XMC4800/common-tasks/RTC/Dave/Generated/DIGITAL_IO\digital_io.h **** * #include "DAVE.h"
 162:C:/work_mari/XMC4800/common-tasks/RTC/Dave/Generated/DIGITAL_IO\digital_io.h **** *
 163:C:/work_mari/XMC4800/common-tasks/RTC/Dave/Generated/DIGITAL_IO\digital_io.h **** * int main(void)
 164:C:/work_mari/XMC4800/common-tasks/RTC/Dave/Generated/DIGITAL_IO\digital_io.h **** * {
 165:C:/work_mari/XMC4800/common-tasks/RTC/Dave/Generated/DIGITAL_IO\digital_io.h **** *   DAVE_STATUS_t init_status;
 166:C:/work_mari/XMC4800/common-tasks/RTC/Dave/Generated/DIGITAL_IO\digital_io.h **** *   DAVE_APP_VERSION_t version;
 167:C:/work_mari/XMC4800/common-tasks/RTC/Dave/Generated/DIGITAL_IO\digital_io.h **** *
 168:C:/work_mari/XMC4800/common-tasks/RTC/Dave/Generated/DIGITAL_IO\digital_io.h **** *   // Initialize DIGITAL_IO APP:
 169:C:/work_mari/XMC4800/common-tasks/RTC/Dave/Generated/DIGITAL_IO\digital_io.h **** *   // DIGITAL_IO_Init() is called from within DAVE_Init().
 170:C:/work_mari/XMC4800/common-tasks/RTC/Dave/Generated/DIGITAL_IO\digital_io.h **** *   init_status = DAVE_Init();
 171:C:/work_mari/XMC4800/common-tasks/RTC/Dave/Generated/DIGITAL_IO\digital_io.h **** *   if(init_status == DAVE_STATUS_SUCCESS)
 172:C:/work_mari/XMC4800/common-tasks/RTC/Dave/Generated/DIGITAL_IO\digital_io.h **** *   {
 173:C:/work_mari/XMC4800/common-tasks/RTC/Dave/Generated/DIGITAL_IO\digital_io.h **** *     version = DIGITAL_IO_GetAppVersion();
 174:C:/work_mari/XMC4800/common-tasks/RTC/Dave/Generated/DIGITAL_IO\digital_io.h **** *     if (version.major != 4U) {
 175:C:/work_mari/XMC4800/common-tasks/RTC/Dave/Generated/DIGITAL_IO\digital_io.h **** *     // Probably, not the right version.
 176:C:/work_mari/XMC4800/common-tasks/RTC/Dave/Generated/DIGITAL_IO\digital_io.h **** *     }
 177:C:/work_mari/XMC4800/common-tasks/RTC/Dave/Generated/DIGITAL_IO\digital_io.h **** *   }
 178:C:/work_mari/XMC4800/common-tasks/RTC/Dave/Generated/DIGITAL_IO\digital_io.h **** *
 179:C:/work_mari/XMC4800/common-tasks/RTC/Dave/Generated/DIGITAL_IO\digital_io.h **** *     // More code here
 180:C:/work_mari/XMC4800/common-tasks/RTC/Dave/Generated/DIGITAL_IO\digital_io.h **** *     while(1) {
 181:C:/work_mari/XMC4800/common-tasks/RTC/Dave/Generated/DIGITAL_IO\digital_io.h **** *
 182:C:/work_mari/XMC4800/common-tasks/RTC/Dave/Generated/DIGITAL_IO\digital_io.h **** *     }
 183:C:/work_mari/XMC4800/common-tasks/RTC/Dave/Generated/DIGITAL_IO\digital_io.h **** *     return (1);
 184:C:/work_mari/XMC4800/common-tasks/RTC/Dave/Generated/DIGITAL_IO\digital_io.h **** *  }
 185:C:/work_mari/XMC4800/common-tasks/RTC/Dave/Generated/DIGITAL_IO\digital_io.h **** * @endcode<BR>
 186:C:/work_mari/XMC4800/common-tasks/RTC/Dave/Generated/DIGITAL_IO\digital_io.h **** */
 187:C:/work_mari/XMC4800/common-tasks/RTC/Dave/Generated/DIGITAL_IO\digital_io.h **** 
 188:C:/work_mari/XMC4800/common-tasks/RTC/Dave/Generated/DIGITAL_IO\digital_io.h **** DAVE_APP_VERSION_t DIGITAL_IO_GetAppVersion(void);
 189:C:/work_mari/XMC4800/common-tasks/RTC/Dave/Generated/DIGITAL_IO\digital_io.h **** 
 190:C:/work_mari/XMC4800/common-tasks/RTC/Dave/Generated/DIGITAL_IO\digital_io.h **** /**
 191:C:/work_mari/XMC4800/common-tasks/RTC/Dave/Generated/DIGITAL_IO\digital_io.h **** *
 192:C:/work_mari/XMC4800/common-tasks/RTC/Dave/Generated/DIGITAL_IO\digital_io.h **** * @brief Function to initialize the port pin as per UI settings.
 193:C:/work_mari/XMC4800/common-tasks/RTC/Dave/Generated/DIGITAL_IO\digital_io.h **** * @param handler Pointer pointing to APP data structure. Refer @ref DIGITAL_IO_t for details.
 194:C:/work_mari/XMC4800/common-tasks/RTC/Dave/Generated/DIGITAL_IO\digital_io.h **** * @return DIGITAL_IO_STATUS_t DIGITAL_IO APP status. Refer @ref DIGITAL_IO_STATUS_t structure for d
 195:C:/work_mari/XMC4800/common-tasks/RTC/Dave/Generated/DIGITAL_IO\digital_io.h **** *
 196:C:/work_mari/XMC4800/common-tasks/RTC/Dave/Generated/DIGITAL_IO\digital_io.h **** * \par<b>Description:</b><br>
 197:C:/work_mari/XMC4800/common-tasks/RTC/Dave/Generated/DIGITAL_IO\digital_io.h **** * This function initializes GPIO port registers IOCR,PDISC,OMR,PDR/PHCR to configure pin direction,
 198:C:/work_mari/XMC4800/common-tasks/RTC/Dave/Generated/DIGITAL_IO\digital_io.h **** * and pad driver strength/hysteresis.
 199:C:/work_mari/XMC4800/common-tasks/RTC/Dave/Generated/DIGITAL_IO\digital_io.h **** *
 200:C:/work_mari/XMC4800/common-tasks/RTC/Dave/Generated/DIGITAL_IO\digital_io.h **** * \par<b>Related APIs:</b><BR>
 201:C:/work_mari/XMC4800/common-tasks/RTC/Dave/Generated/DIGITAL_IO\digital_io.h **** * None
 202:C:/work_mari/XMC4800/common-tasks/RTC/Dave/Generated/DIGITAL_IO\digital_io.h **** *
 203:C:/work_mari/XMC4800/common-tasks/RTC/Dave/Generated/DIGITAL_IO\digital_io.h **** * Example Usage:
 204:C:/work_mari/XMC4800/common-tasks/RTC/Dave/Generated/DIGITAL_IO\digital_io.h **** * @code
 205:C:/work_mari/XMC4800/common-tasks/RTC/Dave/Generated/DIGITAL_IO\digital_io.h **** * #include "DAVE.h" //Declarations from DAVE Code Generation (includes SFR declaration)
 206:C:/work_mari/XMC4800/common-tasks/RTC/Dave/Generated/DIGITAL_IO\digital_io.h **** *
 207:C:/work_mari/XMC4800/common-tasks/RTC/Dave/Generated/DIGITAL_IO\digital_io.h **** * int main(void)
 208:C:/work_mari/XMC4800/common-tasks/RTC/Dave/Generated/DIGITAL_IO\digital_io.h **** * {
 209:C:/work_mari/XMC4800/common-tasks/RTC/Dave/Generated/DIGITAL_IO\digital_io.h **** *   DAVE_STATUS_t status;
 210:C:/work_mari/XMC4800/common-tasks/RTC/Dave/Generated/DIGITAL_IO\digital_io.h **** *   status = DAVE_Init();  //(DAVE_STATUS_t)DIGITAL_IO_Init(&DIGITAL_IO_0) is called within DAVE_In
 211:C:/work_mari/XMC4800/common-tasks/RTC/Dave/Generated/DIGITAL_IO\digital_io.h **** *   if(status == DAVE_STATUS_SUCCESS)
 212:C:/work_mari/XMC4800/common-tasks/RTC/Dave/Generated/DIGITAL_IO\digital_io.h **** *   {
 213:C:/work_mari/XMC4800/common-tasks/RTC/Dave/Generated/DIGITAL_IO\digital_io.h **** *     XMC_DEBUG("DAVE Apps initialization success\n");
 214:C:/work_mari/XMC4800/common-tasks/RTC/Dave/Generated/DIGITAL_IO\digital_io.h **** *   }
 215:C:/work_mari/XMC4800/common-tasks/RTC/Dave/Generated/DIGITAL_IO\digital_io.h **** *   else
 216:C:/work_mari/XMC4800/common-tasks/RTC/Dave/Generated/DIGITAL_IO\digital_io.h **** *   {
 217:C:/work_mari/XMC4800/common-tasks/RTC/Dave/Generated/DIGITAL_IO\digital_io.h **** *     XMC_DEBUG(("DAVE Apps initialization failed with status %d\n", status));
 218:C:/work_mari/XMC4800/common-tasks/RTC/Dave/Generated/DIGITAL_IO\digital_io.h **** *     while(1U)
 219:C:/work_mari/XMC4800/common-tasks/RTC/Dave/Generated/DIGITAL_IO\digital_io.h **** *     {
 220:C:/work_mari/XMC4800/common-tasks/RTC/Dave/Generated/DIGITAL_IO\digital_io.h **** *     }
 221:C:/work_mari/XMC4800/common-tasks/RTC/Dave/Generated/DIGITAL_IO\digital_io.h **** *   }
 222:C:/work_mari/XMC4800/common-tasks/RTC/Dave/Generated/DIGITAL_IO\digital_io.h **** *   //Placeholder for user application code. The while loop below can be replaced with user applica
 223:C:/work_mari/XMC4800/common-tasks/RTC/Dave/Generated/DIGITAL_IO\digital_io.h **** *   while(1U)
 224:C:/work_mari/XMC4800/common-tasks/RTC/Dave/Generated/DIGITAL_IO\digital_io.h **** *   {
 225:C:/work_mari/XMC4800/common-tasks/RTC/Dave/Generated/DIGITAL_IO\digital_io.h **** *   }
 226:C:/work_mari/XMC4800/common-tasks/RTC/Dave/Generated/DIGITAL_IO\digital_io.h **** *   return 1U;
 227:C:/work_mari/XMC4800/common-tasks/RTC/Dave/Generated/DIGITAL_IO\digital_io.h **** *  }
 228:C:/work_mari/XMC4800/common-tasks/RTC/Dave/Generated/DIGITAL_IO\digital_io.h **** *  @endcode
 229:C:/work_mari/XMC4800/common-tasks/RTC/Dave/Generated/DIGITAL_IO\digital_io.h **** */
 230:C:/work_mari/XMC4800/common-tasks/RTC/Dave/Generated/DIGITAL_IO\digital_io.h **** 
 231:C:/work_mari/XMC4800/common-tasks/RTC/Dave/Generated/DIGITAL_IO\digital_io.h **** DIGITAL_IO_STATUS_t DIGITAL_IO_Init(const DIGITAL_IO_t *const handler);
 232:C:/work_mari/XMC4800/common-tasks/RTC/Dave/Generated/DIGITAL_IO\digital_io.h **** 
 233:C:/work_mari/XMC4800/common-tasks/RTC/Dave/Generated/DIGITAL_IO\digital_io.h **** /**
 234:C:/work_mari/XMC4800/common-tasks/RTC/Dave/Generated/DIGITAL_IO\digital_io.h **** *
 235:C:/work_mari/XMC4800/common-tasks/RTC/Dave/Generated/DIGITAL_IO\digital_io.h **** * @brief Function to set port pin high.
 236:C:/work_mari/XMC4800/common-tasks/RTC/Dave/Generated/DIGITAL_IO\digital_io.h **** * @param handler Pointer pointing to APP data structure. Refer @ref DIGITAL_IO_t for details.
 237:C:/work_mari/XMC4800/common-tasks/RTC/Dave/Generated/DIGITAL_IO\digital_io.h **** * @return None
 238:C:/work_mari/XMC4800/common-tasks/RTC/Dave/Generated/DIGITAL_IO\digital_io.h **** *
 239:C:/work_mari/XMC4800/common-tasks/RTC/Dave/Generated/DIGITAL_IO\digital_io.h **** * \par<b>Description:</b><br>
 240:C:/work_mari/XMC4800/common-tasks/RTC/Dave/Generated/DIGITAL_IO\digital_io.h **** * This function configures port output modification register Pn_OMR, to make port pin to high level
 241:C:/work_mari/XMC4800/common-tasks/RTC/Dave/Generated/DIGITAL_IO\digital_io.h **** *
 242:C:/work_mari/XMC4800/common-tasks/RTC/Dave/Generated/DIGITAL_IO\digital_io.h **** * \par<b>Related APIs:</b><BR>
 243:C:/work_mari/XMC4800/common-tasks/RTC/Dave/Generated/DIGITAL_IO\digital_io.h **** *  DIGITAL_IO_SetOutputLow()
 244:C:/work_mari/XMC4800/common-tasks/RTC/Dave/Generated/DIGITAL_IO\digital_io.h **** *
 245:C:/work_mari/XMC4800/common-tasks/RTC/Dave/Generated/DIGITAL_IO\digital_io.h **** * Example Usage:
 246:C:/work_mari/XMC4800/common-tasks/RTC/Dave/Generated/DIGITAL_IO\digital_io.h **** * @code
 247:C:/work_mari/XMC4800/common-tasks/RTC/Dave/Generated/DIGITAL_IO\digital_io.h **** * #include "DAVE.h" //Declarations from DAVE Code Generation (includes SFR declaration)
 248:C:/work_mari/XMC4800/common-tasks/RTC/Dave/Generated/DIGITAL_IO\digital_io.h **** *
 249:C:/work_mari/XMC4800/common-tasks/RTC/Dave/Generated/DIGITAL_IO\digital_io.h **** * int main(void)
 250:C:/work_mari/XMC4800/common-tasks/RTC/Dave/Generated/DIGITAL_IO\digital_io.h **** * {
 251:C:/work_mari/XMC4800/common-tasks/RTC/Dave/Generated/DIGITAL_IO\digital_io.h **** *   DAVE_STATUS_t status;
 252:C:/work_mari/XMC4800/common-tasks/RTC/Dave/Generated/DIGITAL_IO\digital_io.h **** *   status = DAVE_Init();  //(DAVE_STATUS_t)DIGITAL_IO_Init(&DIGITAL_IO_0) is called within DAVE_In
 253:C:/work_mari/XMC4800/common-tasks/RTC/Dave/Generated/DIGITAL_IO\digital_io.h **** *   if(status == DAVE_STATUS_SUCCESS)
 254:C:/work_mari/XMC4800/common-tasks/RTC/Dave/Generated/DIGITAL_IO\digital_io.h **** *   {
 255:C:/work_mari/XMC4800/common-tasks/RTC/Dave/Generated/DIGITAL_IO\digital_io.h **** *     XMC_DEBUG("DAVE Apps initialization success\n");
 256:C:/work_mari/XMC4800/common-tasks/RTC/Dave/Generated/DIGITAL_IO\digital_io.h **** *   }
 257:C:/work_mari/XMC4800/common-tasks/RTC/Dave/Generated/DIGITAL_IO\digital_io.h **** *   else
 258:C:/work_mari/XMC4800/common-tasks/RTC/Dave/Generated/DIGITAL_IO\digital_io.h **** *   {
 259:C:/work_mari/XMC4800/common-tasks/RTC/Dave/Generated/DIGITAL_IO\digital_io.h **** *     XMC_DEBUG(("DAVE Apps initialization failed with status %d\n", status));
 260:C:/work_mari/XMC4800/common-tasks/RTC/Dave/Generated/DIGITAL_IO\digital_io.h **** *     while(1U)
 261:C:/work_mari/XMC4800/common-tasks/RTC/Dave/Generated/DIGITAL_IO\digital_io.h **** *     {
 262:C:/work_mari/XMC4800/common-tasks/RTC/Dave/Generated/DIGITAL_IO\digital_io.h **** *     }
 263:C:/work_mari/XMC4800/common-tasks/RTC/Dave/Generated/DIGITAL_IO\digital_io.h **** *   }
 264:C:/work_mari/XMC4800/common-tasks/RTC/Dave/Generated/DIGITAL_IO\digital_io.h **** *   //Placeholder for user application code. The while loop below can be replaced with user applica
 265:C:/work_mari/XMC4800/common-tasks/RTC/Dave/Generated/DIGITAL_IO\digital_io.h **** *   DIGITAL_IO_SetOutputHigh(&DIGITAL_IO_0);
 266:C:/work_mari/XMC4800/common-tasks/RTC/Dave/Generated/DIGITAL_IO\digital_io.h **** *   while(1U)
 267:C:/work_mari/XMC4800/common-tasks/RTC/Dave/Generated/DIGITAL_IO\digital_io.h **** *   {
 268:C:/work_mari/XMC4800/common-tasks/RTC/Dave/Generated/DIGITAL_IO\digital_io.h **** *     // Add application code here
 269:C:/work_mari/XMC4800/common-tasks/RTC/Dave/Generated/DIGITAL_IO\digital_io.h **** *   }
 270:C:/work_mari/XMC4800/common-tasks/RTC/Dave/Generated/DIGITAL_IO\digital_io.h **** *
 271:C:/work_mari/XMC4800/common-tasks/RTC/Dave/Generated/DIGITAL_IO\digital_io.h **** *   return (1);
 272:C:/work_mari/XMC4800/common-tasks/RTC/Dave/Generated/DIGITAL_IO\digital_io.h **** * }
 273:C:/work_mari/XMC4800/common-tasks/RTC/Dave/Generated/DIGITAL_IO\digital_io.h **** *  @endcode
 274:C:/work_mari/XMC4800/common-tasks/RTC/Dave/Generated/DIGITAL_IO\digital_io.h **** */
 275:C:/work_mari/XMC4800/common-tasks/RTC/Dave/Generated/DIGITAL_IO\digital_io.h **** 
 276:C:/work_mari/XMC4800/common-tasks/RTC/Dave/Generated/DIGITAL_IO\digital_io.h **** __STATIC_INLINE void DIGITAL_IO_SetOutputHigh(const DIGITAL_IO_t *const handler)
 277:C:/work_mari/XMC4800/common-tasks/RTC/Dave/Generated/DIGITAL_IO\digital_io.h **** {
 175              	 .loc 3 277 0
 176              	 .cfi_startproc
 177              	 
 178              	 
 179 0000 80B5     	 push {r7,lr}
 180              	.LCFI16:
 181              	 .cfi_def_cfa_offset 8
 182              	 .cfi_offset 7,-8
 183              	 .cfi_offset 14,-4
 184 0002 82B0     	 sub sp,sp,#8
 185              	.LCFI17:
 186              	 .cfi_def_cfa_offset 16
 187 0004 00AF     	 add r7,sp,#0
 188              	.LCFI18:
 189              	 .cfi_def_cfa_register 7
 190 0006 7860     	 str r0,[r7,#4]
 278:C:/work_mari/XMC4800/common-tasks/RTC/Dave/Generated/DIGITAL_IO\digital_io.h ****   XMC_ASSERT("DIGITAL_IO_SetOutputHigh: handler null pointer", handler != NULL);
 279:C:/work_mari/XMC4800/common-tasks/RTC/Dave/Generated/DIGITAL_IO\digital_io.h ****   XMC_GPIO_SetOutputHigh(handler->gpio_port, handler->gpio_pin);
 191              	 .loc 3 279 0
 192 0008 7B68     	 ldr r3,[r7,#4]
 193 000a 1A68     	 ldr r2,[r3]
 194 000c 7B68     	 ldr r3,[r7,#4]
 195 000e 1B7C     	 ldrb r3,[r3,#16]
 196 0010 1046     	 mov r0,r2
 197 0012 1946     	 mov r1,r3
 198 0014 FFF7FEFF 	 bl XMC_GPIO_SetOutputHigh
 280:C:/work_mari/XMC4800/common-tasks/RTC/Dave/Generated/DIGITAL_IO\digital_io.h **** }
 199              	 .loc 3 280 0
 200 0018 0837     	 adds r7,r7,#8
 201              	.LCFI19:
 202              	 .cfi_def_cfa_offset 8
 203 001a BD46     	 mov sp,r7
 204              	.LCFI20:
 205              	 .cfi_def_cfa_register 13
 206              	 
 207 001c 80BD     	 pop {r7,pc}
 208              	 .cfi_endproc
 209              	.LFE188:
 211 001e 00BF     	 .section .text.DIGITAL_IO_SetOutputLow,"ax",%progbits
 212              	 .align 2
 213              	 .thumb
 214              	 .thumb_func
 216              	DIGITAL_IO_SetOutputLow:
 217              	.LFB189:
 281:C:/work_mari/XMC4800/common-tasks/RTC/Dave/Generated/DIGITAL_IO\digital_io.h **** 
 282:C:/work_mari/XMC4800/common-tasks/RTC/Dave/Generated/DIGITAL_IO\digital_io.h **** /**
 283:C:/work_mari/XMC4800/common-tasks/RTC/Dave/Generated/DIGITAL_IO\digital_io.h **** * @brief Function to reset port pin.
 284:C:/work_mari/XMC4800/common-tasks/RTC/Dave/Generated/DIGITAL_IO\digital_io.h **** * @param handler Pointer pointing to APP data structure. Refer @ref DIGITAL_IO_t for details.
 285:C:/work_mari/XMC4800/common-tasks/RTC/Dave/Generated/DIGITAL_IO\digital_io.h **** * @return None
 286:C:/work_mari/XMC4800/common-tasks/RTC/Dave/Generated/DIGITAL_IO\digital_io.h **** *
 287:C:/work_mari/XMC4800/common-tasks/RTC/Dave/Generated/DIGITAL_IO\digital_io.h **** * \par<b>Description:</b><br>
 288:C:/work_mari/XMC4800/common-tasks/RTC/Dave/Generated/DIGITAL_IO\digital_io.h **** * This function configures port output modification register Pn_OMR, to make port pin to low level.
 289:C:/work_mari/XMC4800/common-tasks/RTC/Dave/Generated/DIGITAL_IO\digital_io.h **** *
 290:C:/work_mari/XMC4800/common-tasks/RTC/Dave/Generated/DIGITAL_IO\digital_io.h **** * \par<b>Related APIs:</b><BR>
 291:C:/work_mari/XMC4800/common-tasks/RTC/Dave/Generated/DIGITAL_IO\digital_io.h **** * DIGITAL_IO_SetOutputHigh()
 292:C:/work_mari/XMC4800/common-tasks/RTC/Dave/Generated/DIGITAL_IO\digital_io.h **** *
 293:C:/work_mari/XMC4800/common-tasks/RTC/Dave/Generated/DIGITAL_IO\digital_io.h **** * Example Usage:
 294:C:/work_mari/XMC4800/common-tasks/RTC/Dave/Generated/DIGITAL_IO\digital_io.h **** * @code
 295:C:/work_mari/XMC4800/common-tasks/RTC/Dave/Generated/DIGITAL_IO\digital_io.h **** *  #include "DAVE.h" //Declarations from DAVE Code Generation (includes SFR declaration)
 296:C:/work_mari/XMC4800/common-tasks/RTC/Dave/Generated/DIGITAL_IO\digital_io.h **** *
 297:C:/work_mari/XMC4800/common-tasks/RTC/Dave/Generated/DIGITAL_IO\digital_io.h **** *  int main(void)
 298:C:/work_mari/XMC4800/common-tasks/RTC/Dave/Generated/DIGITAL_IO\digital_io.h **** *  {
 299:C:/work_mari/XMC4800/common-tasks/RTC/Dave/Generated/DIGITAL_IO\digital_io.h **** *    DAVE_STATUS_t status;
 300:C:/work_mari/XMC4800/common-tasks/RTC/Dave/Generated/DIGITAL_IO\digital_io.h **** *    status = DAVE_Init();  //(DAVE_STATUS_t)DIGITAL_IO_Init(&DIGITAL_IO_0) is called within DAVE_I
 301:C:/work_mari/XMC4800/common-tasks/RTC/Dave/Generated/DIGITAL_IO\digital_io.h **** *    if(status == DAVE_STATUS_SUCCESS)
 302:C:/work_mari/XMC4800/common-tasks/RTC/Dave/Generated/DIGITAL_IO\digital_io.h **** *    {
 303:C:/work_mari/XMC4800/common-tasks/RTC/Dave/Generated/DIGITAL_IO\digital_io.h **** *      XMC_DEBUG("DAVE Apps initialization success\n");
 304:C:/work_mari/XMC4800/common-tasks/RTC/Dave/Generated/DIGITAL_IO\digital_io.h **** *    }
 305:C:/work_mari/XMC4800/common-tasks/RTC/Dave/Generated/DIGITAL_IO\digital_io.h **** *    else
 306:C:/work_mari/XMC4800/common-tasks/RTC/Dave/Generated/DIGITAL_IO\digital_io.h **** *    {
 307:C:/work_mari/XMC4800/common-tasks/RTC/Dave/Generated/DIGITAL_IO\digital_io.h **** *      XMC_DEBUG(("DAVE Apps initialization failed with status %d\n", status));
 308:C:/work_mari/XMC4800/common-tasks/RTC/Dave/Generated/DIGITAL_IO\digital_io.h **** *      while(1U)
 309:C:/work_mari/XMC4800/common-tasks/RTC/Dave/Generated/DIGITAL_IO\digital_io.h **** *      {
 310:C:/work_mari/XMC4800/common-tasks/RTC/Dave/Generated/DIGITAL_IO\digital_io.h **** *      }
 311:C:/work_mari/XMC4800/common-tasks/RTC/Dave/Generated/DIGITAL_IO\digital_io.h **** *    }
 312:C:/work_mari/XMC4800/common-tasks/RTC/Dave/Generated/DIGITAL_IO\digital_io.h **** *    //Placeholder for user application code. The while loop below can be replaced with user applic
 313:C:/work_mari/XMC4800/common-tasks/RTC/Dave/Generated/DIGITAL_IO\digital_io.h **** *    DIGITAL_IO_SetOutputLow(&DIGITAL_IO_0);
 314:C:/work_mari/XMC4800/common-tasks/RTC/Dave/Generated/DIGITAL_IO\digital_io.h **** *    while(1U)
 315:C:/work_mari/XMC4800/common-tasks/RTC/Dave/Generated/DIGITAL_IO\digital_io.h **** *    {
 316:C:/work_mari/XMC4800/common-tasks/RTC/Dave/Generated/DIGITAL_IO\digital_io.h **** *      // Add application code here
 317:C:/work_mari/XMC4800/common-tasks/RTC/Dave/Generated/DIGITAL_IO\digital_io.h **** *    }
 318:C:/work_mari/XMC4800/common-tasks/RTC/Dave/Generated/DIGITAL_IO\digital_io.h **** *
 319:C:/work_mari/XMC4800/common-tasks/RTC/Dave/Generated/DIGITAL_IO\digital_io.h **** *   return (1);
 320:C:/work_mari/XMC4800/common-tasks/RTC/Dave/Generated/DIGITAL_IO\digital_io.h **** * }
 321:C:/work_mari/XMC4800/common-tasks/RTC/Dave/Generated/DIGITAL_IO\digital_io.h **** *  @endcode
 322:C:/work_mari/XMC4800/common-tasks/RTC/Dave/Generated/DIGITAL_IO\digital_io.h **** */
 323:C:/work_mari/XMC4800/common-tasks/RTC/Dave/Generated/DIGITAL_IO\digital_io.h **** 
 324:C:/work_mari/XMC4800/common-tasks/RTC/Dave/Generated/DIGITAL_IO\digital_io.h **** __STATIC_INLINE void DIGITAL_IO_SetOutputLow(const DIGITAL_IO_t *const handler)
 325:C:/work_mari/XMC4800/common-tasks/RTC/Dave/Generated/DIGITAL_IO\digital_io.h **** {
 218              	 .loc 3 325 0
 219              	 .cfi_startproc
 220              	 
 221              	 
 222 0000 80B5     	 push {r7,lr}
 223              	.LCFI21:
 224              	 .cfi_def_cfa_offset 8
 225              	 .cfi_offset 7,-8
 226              	 .cfi_offset 14,-4
 227 0002 82B0     	 sub sp,sp,#8
 228              	.LCFI22:
 229              	 .cfi_def_cfa_offset 16
 230 0004 00AF     	 add r7,sp,#0
 231              	.LCFI23:
 232              	 .cfi_def_cfa_register 7
 233 0006 7860     	 str r0,[r7,#4]
 326:C:/work_mari/XMC4800/common-tasks/RTC/Dave/Generated/DIGITAL_IO\digital_io.h ****   XMC_ASSERT("DIGITAL_IO_SetOutputLow: handler null pointer", handler != NULL);
 327:C:/work_mari/XMC4800/common-tasks/RTC/Dave/Generated/DIGITAL_IO\digital_io.h ****   XMC_GPIO_SetOutputLow(handler->gpio_port,handler->gpio_pin);
 234              	 .loc 3 327 0
 235 0008 7B68     	 ldr r3,[r7,#4]
 236 000a 1A68     	 ldr r2,[r3]
 237 000c 7B68     	 ldr r3,[r7,#4]
 238 000e 1B7C     	 ldrb r3,[r3,#16]
 239 0010 1046     	 mov r0,r2
 240 0012 1946     	 mov r1,r3
 241 0014 FFF7FEFF 	 bl XMC_GPIO_SetOutputLow
 328:C:/work_mari/XMC4800/common-tasks/RTC/Dave/Generated/DIGITAL_IO\digital_io.h **** }
 242              	 .loc 3 328 0
 243 0018 0837     	 adds r7,r7,#8
 244              	.LCFI24:
 245              	 .cfi_def_cfa_offset 8
 246 001a BD46     	 mov sp,r7
 247              	.LCFI25:
 248              	 .cfi_def_cfa_register 13
 249              	 
 250 001c 80BD     	 pop {r7,pc}
 251              	 .cfi_endproc
 252              	.LFE189:
 254              	 .global timeval
 255 001e 00BF     	 .section .data.timeval,"aw",%progbits
 256              	 .align 2
 259              	timeval:
 260 0000 00       	 .byte 0
 261 0001 00       	 .byte 0
 262 0002 17       	 .byte 23
 263 0003 1D       	 .byte 29
 264 0004 00       	 .space 1
 265 0005 08       	 .byte 8
 266 0006 E807     	 .short 2024
 267              	 .global alarm
 268              	 .section .data.alarm,"aw",%progbits
 269              	 .align 2
 272              	alarm:
 273 0000 00       	 .byte 0
 274 0001 01       	 .byte 1
 275 0002 17       	 .byte 23
 276 0003 1D       	 .byte 29
 277 0004 00       	 .space 1
 278 0005 08       	 .byte 8
 279 0006 E807     	 .short 2024
 280              	 .section .text.main,"ax",%progbits
 281              	 .align 2
 282              	 .global main
 283              	 .thumb
 284              	 .thumb_func
 286              	main:
 287              	.LFB192:
 288              	 .file 4 "../main.c"
   1:../main.c     **** /*
   2:../main.c     ****  * main.c
   3:../main.c     ****  *
   4:../main.c     ****  *  Created on: 2024 Aug 29 22:04:49
   5:../main.c     ****  *  Author: admin
   6:../main.c     ****  */
   7:../main.c     **** 
   8:../main.c     **** 
   9:../main.c     **** 
  10:../main.c     **** 
  11:../main.c     **** #include "DAVE.h"                 //Declarations from DAVE Code Generation (includes SFR declaratio
  12:../main.c     **** 
  13:../main.c     **** /**
  14:../main.c     **** 
  15:../main.c     ****  * @brief main() - Application entry point
  16:../main.c     ****  *
  17:../main.c     ****  * <b>Details of function</b><br>
  18:../main.c     ****  * This routine is the application entry point. It is invoked by the device startup code. It is res
  19:../main.c     ****  * invoking the APP initialization dispatcher routine - DAVE_Init() and hosting the place-holder fo
  20:../main.c     ****  * code.
  21:../main.c     ****  */
  22:../main.c     **** 
  23:../main.c     **** 
  24:../main.c     **** XMC_RTC_TIME_t timeval =
  25:../main.c     ****   {
  26:../main.c     ****      .seconds = 0U,
  27:../main.c     ****      .minutes = 0U,
  28:../main.c     ****      .hours =23U,
  29:../main.c     ****      .days = 29U,
  30:../main.c     ****      .month = 8,
  31:../main.c     ****      .year = 2024U
  32:../main.c     ****   };
  33:../main.c     **** 
  34:../main.c     **** XMC_RTC_ALARM_t alarm =
  35:../main.c     ****   {
  36:../main.c     ****      .seconds = 0U,
  37:../main.c     ****      .minutes = 1U,
  38:../main.c     ****      .hours = 23U,
  39:../main.c     ****      .days = 29U,
  40:../main.c     ****      .month = 8,
  41:../main.c     ****      .year = 2024U
  42:../main.c     ****   };
  43:../main.c     **** 
  44:../main.c     **** int main(void)
  45:../main.c     **** {
 289              	 .loc 4 45 0
 290              	 .cfi_startproc
 291              	 
 292              	 
 293 0000 80B5     	 push {r7,lr}
 294              	.LCFI26:
 295              	 .cfi_def_cfa_offset 8
 296              	 .cfi_offset 7,-8
 297              	 .cfi_offset 14,-4
 298 0002 82B0     	 sub sp,sp,#8
 299              	.LCFI27:
 300              	 .cfi_def_cfa_offset 16
 301 0004 00AF     	 add r7,sp,#0
 302              	.LCFI28:
 303              	 .cfi_def_cfa_register 7
  46:../main.c     **** 	RTC_STATUS_t RTC_ST = RTC_STATUS_FAILURE;
 304              	 .loc 4 46 0
 305 0006 0123     	 movs r3,#1
 306 0008 FB71     	 strb r3,[r7,#7]
  47:../main.c     **** 	RTC_STATUS_t RTC_SAT = RTC_STATUS_FAILURE;
 307              	 .loc 4 47 0
 308 000a 0123     	 movs r3,#1
 309 000c BB71     	 strb r3,[r7,#6]
  48:../main.c     ****   DAVE_STATUS_t status;
  49:../main.c     **** 
  50:../main.c     ****   status = DAVE_Init();           /* Initialization of DAVE APPs  */
 310              	 .loc 4 50 0
 311 000e FFF7FEFF 	 bl DAVE_Init
 312 0012 0346     	 mov r3,r0
 313 0014 7B71     	 strb r3,[r7,#5]
  51:../main.c     ****   RTC_Stop();
 314              	 .loc 4 51 0
 315 0016 FFF7FEFF 	 bl RTC_Stop
  52:../main.c     ****   RTC_ST=RTC_SetTime(&timeval);
 316              	 .loc 4 52 0
 317 001a 2648     	 ldr r0,.L12
 318 001c FFF7FEFF 	 bl RTC_SetTime
 319 0020 0346     	 mov r3,r0
 320 0022 FB71     	 strb r3,[r7,#7]
  53:../main.c     **** 
  54:../main.c     ****   RTC_SAT=RTC_SetAlarmTime(&alarm);
 321              	 .loc 4 54 0
 322 0024 2448     	 ldr r0,.L12+4
 323 0026 FFF7FEFF 	 bl RTC_SetAlarmTime
 324 002a 0346     	 mov r3,r0
 325 002c BB71     	 strb r3,[r7,#6]
  55:../main.c     ****   RTC_Start();
 326              	 .loc 4 55 0
 327 002e FFF7FEFF 	 bl RTC_Start
  56:../main.c     ****   if (status != DAVE_STATUS_SUCCESS)
 328              	 .loc 4 56 0
 329 0032 7B79     	 ldrb r3,[r7,#5]
 330 0034 002B     	 cmp r3,#0
 331 0036 00D0     	 beq .L8
 332              	.L9:
  57:../main.c     ****   {
  58:../main.c     ****     /* Placeholder for error handler code. The while loop below can be replaced with an user error 
  59:../main.c     ****     XMC_DEBUG("DAVE APPs initialization failed\n");
  60:../main.c     **** 
  61:../main.c     ****     while(1U)
  62:../main.c     ****     {
  63:../main.c     **** 
  64:../main.c     ****     }
 333              	 .loc 4 64 0 discriminator 1
 334 0038 FEE7     	 b .L9
 335              	.L8:
  65:../main.c     ****   }
  66:../main.c     **** 
  67:../main.c     ****   /* Placeholder for user application code. The while loop below can be replaced with user applicat
  68:../main.c     ****   while(1U)
  69:../main.c     ****   {
  70:../main.c     **** 
  71:../main.c     **** 	  if((RTC_ST==RTC_STATUS_SUCCESS)&&(RTC_SAT==RTC_STATUS_SUCCESS))
 336              	 .loc 4 71 0
 337 003a FB79     	 ldrb r3,[r7,#7]
 338 003c 002B     	 cmp r3,#0
 339 003e 37D1     	 bne .L10
 340              	 .loc 4 71 0 is_stmt 0 discriminator 1
 341 0040 BB79     	 ldrb r3,[r7,#6]
 342 0042 002B     	 cmp r3,#0
 343 0044 34D1     	 bne .L10
  72:../main.c     **** 	  {
  73:../main.c     **** 		  RTC_GetTime(&timeval);
 344              	 .loc 4 73 0 is_stmt 1
 345 0046 1B48     	 ldr r0,.L12
 346 0048 FFF7FEFF 	 bl RTC_GetTime
  74:../main.c     **** 		  RTC_GetAlarmTime(&alarm);
 347              	 .loc 4 74 0
 348 004c 1A48     	 ldr r0,.L12+4
 349 004e FFF7FEFF 	 bl RTC_GetAlarmTime
  75:../main.c     **** 		  if((timeval.minutes>=alarm.minutes)&&((timeval.minutes<=alarm.minutes)&&(timeval.seconds<=alarm
 350              	 .loc 4 75 0
 351 0052 184B     	 ldr r3,.L12
 352 0054 5B78     	 ldrb r3,[r3,#1]
 353 0056 C3F30503 	 ubfx r3,r3,#0,#6
 354 005a DBB2     	 uxtb r3,r3
 355 005c 1A46     	 mov r2,r3
 356 005e 164B     	 ldr r3,.L12+4
 357 0060 5B78     	 ldrb r3,[r3,#1]
 358 0062 C3F30503 	 ubfx r3,r3,#0,#6
 359 0066 DBB2     	 uxtb r3,r3
 360 0068 9A42     	 cmp r2,r3
 361 006a 1EDB     	 blt .L11
 362              	 .loc 4 75 0 is_stmt 0 discriminator 1
 363 006c 114B     	 ldr r3,.L12
 364 006e 5B78     	 ldrb r3,[r3,#1]
 365 0070 C3F30503 	 ubfx r3,r3,#0,#6
 366 0074 DBB2     	 uxtb r3,r3
 367 0076 1A46     	 mov r2,r3
 368 0078 0F4B     	 ldr r3,.L12+4
 369 007a 5B78     	 ldrb r3,[r3,#1]
 370 007c C3F30503 	 ubfx r3,r3,#0,#6
 371 0080 DBB2     	 uxtb r3,r3
 372 0082 9A42     	 cmp r2,r3
 373 0084 11DC     	 bgt .L11
 374              	 .loc 4 75 0 discriminator 2
 375 0086 0B4B     	 ldr r3,.L12
 376 0088 1B78     	 ldrb r3,[r3]
 377 008a C3F30503 	 ubfx r3,r3,#0,#6
 378 008e DBB2     	 uxtb r3,r3
 379 0090 1A46     	 mov r2,r3
 380 0092 094B     	 ldr r3,.L12+4
 381 0094 1B78     	 ldrb r3,[r3]
 382 0096 C3F30503 	 ubfx r3,r3,#0,#6
 383 009a DBB2     	 uxtb r3,r3
 384 009c 3B33     	 adds r3,r3,#59
 385 009e 9A42     	 cmp r2,r3
 386 00a0 03DC     	 bgt .L11
  76:../main.c     **** 		  {
  77:../main.c     **** 			  DIGITAL_IO_SetOutputHigh(&DIGITAL_IO_0);
 387              	 .loc 4 77 0 is_stmt 1
 388 00a2 0648     	 ldr r0,.L12+8
 389 00a4 FFF7FEFF 	 bl DIGITAL_IO_SetOutputHigh
 390 00a8 02E0     	 b .L10
 391              	.L11:
  78:../main.c     **** 
  79:../main.c     **** 		  }
  80:../main.c     **** 		  else
  81:../main.c     **** 		  {
  82:../main.c     **** 			  DIGITAL_IO_SetOutputLow(&DIGITAL_IO_0);
 392              	 .loc 4 82 0
 393 00aa 0448     	 ldr r0,.L12+8
 394 00ac FFF7FEFF 	 bl DIGITAL_IO_SetOutputLow
 395              	.L10:
  83:../main.c     **** 		  }
  84:../main.c     **** 
  85:../main.c     **** 	  }
  86:../main.c     ****   }
 396              	 .loc 4 86 0
 397 00b0 C3E7     	 b .L8
 398              	.L13:
 399 00b2 00BF     	 .align 2
 400              	.L12:
 401 00b4 00000000 	 .word timeval
 402 00b8 00000000 	 .word alarm
 403 00bc 00000000 	 .word DIGITAL_IO_0
 404              	 .cfi_endproc
 405              	.LFE192:
 407              	 .text
 408              	.Letext0:
 409              	 .file 5 "c:\\infineon\\tools\\dave ide\\4.5.0.202105191637\\eclipse\\arm-gcc-49\\arm-none-eabi\\include\\machine\\_default_types.h"
 410              	 .file 6 "c:\\infineon\\tools\\dave ide\\4.5.0.202105191637\\eclipse\\arm-gcc-49\\arm-none-eabi\\include\\stdint.h"
 411              	 .file 7 "C:/work_mari/XMC4800/common-tasks/RTC/Libraries/XMCLib/inc/xmc4_gpio.h"
 412              	 .file 8 "C:/work_mari/XMC4800/common-tasks/RTC/Libraries/XMCLib/inc/xmc_rtc.h"
 413              	 .file 9 "C:/work_mari/XMC4800/common-tasks/RTC/Dave/Generated/DAVE.h"
 414              	 .file 10 "C:/work_mari/XMC4800/common-tasks/RTC/Libraries/CMSIS/Include/cmsis_gcc.h"
 415              	 .file 11 "C:/work_mari/XMC4800/common-tasks/RTC/Libraries/CMSIS/Include/core_cm4.h"
 416              	 .file 12 "C:/work_mari/XMC4800/common-tasks/RTC/Libraries/CMSIS/Infineon/XMC4800_series/Include/system_XMC4800.h"
 417              	 .file 13 "C:/work_mari/XMC4800/common-tasks/RTC/Dave/Generated/DIGITAL_IO/digital_io_extern.h"